ASxxxx Linker V03.00 + NoICE + sdld,  page 1.
Hexadecimal  [32-Bits]

Area                                    Addr        Size        Decimal Bytes (Attributes)
--------------------------------        ----        ----        ------- ----- ------------
.  .ABS.                            00000000    00000000 =           0. bytes (ABS,CON)

      Value  Global                              Global Defined In Module
      -----  --------------------------------   ------------------------
     00000000  .__.ABS.                           
     00000000  l__CABS                         
     00000000  l__DABS                         
     00000000  l__GSFINAL                      
     00000000  l__GSINIT                       
     00000000  l__HOME                         
     00000000  s__CABS                         
     00000000  s__DABS                         
     00000004  l__INITIALIZED                  
     00000004  l__INITIALIZER                  
     00000292  l__DATA                         
     000019F1  l__CODE                         
     00004000  s__CODE                         
     000059F1  s__DATA                         
     00005C83  s__INITIALIZED                  
     00005C87  s__GSFINAL                      
     00005C87  s__GSINIT                       
     00005C87  s__HOME                         
     00005C87  s__INITIALIZER                  

ASxxxx Linker V03.00 + NoICE + sdld,  page 2.
Hexadecimal  [32-Bits]

Area                                    Addr        Size        Decimal Bytes (Attributes)
--------------------------------        ----        ----        ------- ----- ------------
_CODE                               00004000    000019F1 =        6641. bytes (REL,CON)

      Value  Global                              Global Defined In Module
      -----  --------------------------------   ------------------------
     00004000  _MapCreate                         game_map
     0000404F  _MapIsBlocked                      game_map
     00004072  _MapDraw                           game_map
     0000410B  _ShowLogo                          logo
     000043E9  _HandleKeyboard                    input_handler
     0000445C  _locate                            conio
     0000447D  _ink                               conio
     000044AA  _paper                             conio
     000044BF  _pen                               conio
     000044D4  _PrintAt                           conio
     0000451F  _PrintU8                           conio
     0000455A  _EntityInit                        entity
     00004625  _EntityDraw                        entity
     00004687  _EntityMove                        entity
     000046B8  _EntityCalculateDamage             entity
     000046F1  _EntityTakeDamage                  entity
     00004786  _EntityAttack                      entity
     000047EF  _GetBlockingEntity                 entity
     00004841  _EntityDrawEntities                entity
     0000489E  _EntityPrintStats                  entity
     00004A3F  _InitColors                        main
     00004A8C  _main                              main
     00004CD8  _cpct_isKeyPressed                 cpct_keyboard
     00004CD8  cpct_isKeyPressed_asm              cpct_keyboard
     00004CE4  _putchar                           cpct_strings
     00004CE4  _putchar_rr_s                      cpct_strings
     00004CED  _putchar_rr_dbs                    cpct_strings
     00004CF2  _cpct_keyboardStatusBuffer         cpct_keyboard
     00004CFC  _cpct_waitHalts                    cpct_memutils
     00004D21  _vsprintf                          sprintf
     00004D56  _sprintf                           sprintf
     00004D8B  _cpct_setVideoMode                 cpct_video
     00004D99  _cpct_getRandom_mxor_u8            cpct_random
     00004D99  cpct_getRandom_mxor_u8_asm         cpct_random
     00004D9A  cpct_randomIdx_mxor_u8             cpct_random
     00004DBE  _cpct_mode_rom_status              cpct_firmware
     00004DBF  _cpct_scanKeyboard                 cpct_keyboard
     00004DBF  cpct_scanKeyboard_asm              cpct_keyboard
     00004DF0  __divsint                          
     00004DF9  __divschar                         
     00004E00  __div8                             
     00004E04  __div_signexte                     
     00004E08  __div16                            
     00004E2E  __get_remainder                    
     00004E38  _cpct_mxor32_seed                  cpct_random
     00004F3B  __print_format                     printf_large
     0000597D  __divuint                          
     00005985  __divuchar                         
     0000598C  __divu8                            
     0000598F  __divu16                           
ASxxxx Linker V03.00 + NoICE + sdld,  page 3.
Hexadecimal  [32-Bits]

Area                                    Addr        Size        Decimal Bytes (Attributes)
--------------------------------        ----        ----        ------- ----- ------------
_CODE                               00004000    000019F1 =        6641. bytes (REL,CON)

      Value  Global                              Global Defined In Module
      -----  --------------------------------   ------------------------
     000059BE  _cpct_nextRandom_mxor_u32          cpct_random
     000059BE  cpct_nextRandom_mxor_u32_asm       cpct_random
     000059E1  ___sdcc_call_hl                    
     000059E2  _strlen                            
ASxxxx Linker V03.00 + NoICE + sdld,  page 4.
Hexadecimal  [32-Bits]

Area                                    Addr        Size        Decimal Bytes (Attributes)
--------------------------------        ----        ----        ------- ----- ------------
_DATA                               000059F1    00000292 =         658. bytes (REL,CON)

      Value  Global                              Global Defined In Module
      -----  --------------------------------   ------------------------
     000059F1  _game_map                          game_map
     00005C23  _player                            main
     00005C44  _enemy                             main
     00005C65  _dirty                             main
     00005C6A  _entities                          main
     00005C74  _state                             main
     00005C75  _dx                                main
     00005C76  _dy                                main
     00005C77  _edx                               main
     00005C81  _new_x                             main
     00005C82  _new_y                             main

ASxxxx Linker V03.00 + NoICE + sdld,  page 5.
Hexadecimal  [32-Bits]

Area                                    Addr        Size        Decimal Bytes (Attributes)
--------------------------------        ----        ----        ------- ----- ------------
_INITIALIZED                        00005C83    00000004 =           4. bytes (REL,CON)

      Value  Global                              Global Defined In Module
      -----  --------------------------------   ------------------------
     00005C83  _action                            main
     00005C84  _target                            main
     00005C86  _edy                               main
ASxxxx Linker V03.00 + NoICE + sdld,  page 6.
Hexadecimal  [32-Bits]

Area                                    Addr        Size        Decimal Bytes (Attributes)
--------------------------------        ----        ----        ------- ----- ------------
_INITIALIZER                        00005C87    00000004 =           4. bytes (REL,CON)

      Value  Global                              Global Defined In Module
      -----  --------------------------------   ------------------------
ASxxxx Linker V03.00 + NoICE + sdld,  page 7.

Files Linked                              [ module(s) ]

obj/game_map.rel                          [ game_map ]
obj/logo.rel                              [ logo ]
obj/input_handler.rel                     [ input_handler ]
obj/conio.rel                             [ conio ]
obj/entity.rel                            [ entity ]
obj/main.rel                              [ main ]


Libraries Linked                          [ object file ]

/home/andriu/.local/cpctelera/cpctelera/cpctelera.lib
                                          [ cpct_isKeyPressed.rel ]
/home/andriu/.local/cpctelera/cpctelera/cpctelera.lib
                                          [ cpct_putChar.rel ]
/home/andriu/.local/cpctelera/cpctelera/cpctelera.lib
                                          [ keyboard.rel ]
/home/andriu/.local/cpctelera/cpctelera/cpctelera.lib
                                          [ cpct_waitHalts_cbindings.rel ]
/home/andriu/.local/cpctelera/cpctelera/tools/sdcc-3.6.8-r9946/bin/../share/sdcc/lib/z80/z80.lib
                                          [ sprintf.rel ]
/home/andriu/.local/cpctelera/cpctelera/cpctelera.lib
                                          [ cpct_setVideoMode_cbindings.rel ]
/home/andriu/.local/cpctelera/cpctelera/cpctelera.lib
                                          [ cpct_getRandom_mxor_u8.rel ]
/home/andriu/.local/cpctelera/cpctelera/cpctelera.lib
                                          [ cpc_mode_rom_status.rel ]
/home/andriu/.local/cpctelera/cpctelera/cpctelera.lib
                                          [ cpct_scanKeyboard.rel ]
/home/andriu/.local/cpctelera/cpctelera/tools/sdcc-3.6.8-r9946/bin/../share/sdcc/lib/z80/z80.lib
                                          [ divsigned.rel ]
/home/andriu/.local/cpctelera/cpctelera/cpctelera.lib
                                          [ cpct_mxor32_seed.rel ]
/home/andriu/.local/cpctelera/cpctelera/tools/sdcc-3.6.8-r9946/bin/../share/sdcc/lib/z80/z80.lib
                                          [ printf_large.rel ]
/home/andriu/.local/cpctelera/cpctelera/tools/sdcc-3.6.8-r9946/bin/../share/sdcc/lib/z80/z80.lib
                                          [ divunsigned.rel ]
/home/andriu/.local/cpctelera/cpctelera/cpctelera.lib
                                          [ cpct_nextRandom_mxor_u32.rel ]
/home/andriu/.local/cpctelera/cpctelera/tools/sdcc-3.6.8-r9946/bin/../share/sdcc/lib/z80/z80.lib
                                          [ __sdcc_call_hl.rel ]
/home/andriu/.local/cpctelera/cpctelera/tools/sdcc-3.6.8-r9946/bin/../share/sdcc/lib/z80/z80.lib
                                          [ strlen.rel ]

ASxxxx Linker V03.00 + NoICE + sdld,  page 8.

User Base Address Definitions

_CODE = 0x4000
_DATA = 0x0000

