                              1 ;--------------------------------------------------------
                              2 ; File Created by SDCC : free open source ANSI-C Compiler
                              3 ; Version 3.6.8 #9946 (Linux)
                              4 ;--------------------------------------------------------
                              5 	.module game_map
                              6 	.optsdcc -mz80
                              7 	
                              8 ;--------------------------------------------------------
                              9 ; Public variables in this module
                             10 ;--------------------------------------------------------
                             11 	.globl _pen
                             12 	.globl _locate
                             13 	.globl _putchar
                             14 	.globl _game_map
                             15 	.globl _MapCreate
                             16 	.globl _MapIsBlocked
                             17 	.globl _MapDraw
                             18 ;--------------------------------------------------------
                             19 ; special function registers
                             20 ;--------------------------------------------------------
                             21 ;--------------------------------------------------------
                             22 ; ram data
                             23 ;--------------------------------------------------------
                             24 	.area _DATA
   0000                      25 _game_map::
   0000                      26 	.ds 562
                             27 ;--------------------------------------------------------
                             28 ; ram data
                             29 ;--------------------------------------------------------
                             30 	.area _INITIALIZED
                             31 ;--------------------------------------------------------
                             32 ; absolute external ram data
                             33 ;--------------------------------------------------------
                             34 	.area _DABS (ABS)
                             35 ;--------------------------------------------------------
                             36 ; global & static initialisations
                             37 ;--------------------------------------------------------
                             38 	.area _HOME
                             39 	.area _GSINIT
                             40 	.area _GSFINAL
                             41 	.area _GSINIT
                             42 ;--------------------------------------------------------
                             43 ; Home
                             44 ;--------------------------------------------------------
                             45 	.area _HOME
                             46 	.area _HOME
                             47 ;--------------------------------------------------------
                             48 ; code
                             49 ;--------------------------------------------------------
                             50 	.area _CODE
                             51 ;src/game_map.c:9: void MapCreate (u8 width, u8 height)
                             52 ;	---------------------------------
                             53 ; Function MapCreate
                             54 ; ---------------------------------
   0000                      55 _MapCreate::
   0000 DD E5         [15]   56 	push	ix
   0002 DD 21 00 00   [14]   57 	ld	ix,#0
   0006 DD 39         [15]   58 	add	ix,sp
                             59 ;src/game_map.c:13: game_map.width = width;
   0008 21r00r00      [10]   60 	ld	hl, #_game_map
   000B DD 7E 04      [19]   61 	ld	a, 4 (ix)
   000E 77            [ 7]   62 	ld	(hl), a
                             63 ;src/game_map.c:14: game_map.height = height;
   000F 21r01r00      [10]   64 	ld	hl, #(_game_map + 0x0001)
   0012 DD 7E 05      [19]   65 	ld	a, 5 (ix)
   0015 77            [ 7]   66 	ld	(hl), a
                             67 ;src/game_map.c:15: for (i=0; i < height; ++i)
   0016 0E 00         [ 7]   68 	ld	c, #0x00
   0018                      69 00107$:
   0018 79            [ 4]   70 	ld	a, c
   0019 DD 96 05      [19]   71 	sub	a, 5 (ix)
   001C 30 24         [12]   72 	jr	NC,00102$
                             73 ;src/game_map.c:16: for (j=0; j < width; ++j)
   001E 06 00         [ 7]   74 	ld	b,#0x00
   0020 69            [ 4]   75 	ld	l, c
   0021 60            [ 4]   76 	ld	h, b
   0022 29            [11]   77 	add	hl, hl
   0023 09            [11]   78 	add	hl, bc
   0024 29            [11]   79 	add	hl, hl
   0025 09            [11]   80 	add	hl, bc
   0026 29            [11]   81 	add	hl, hl
   0027 29            [11]   82 	add	hl, hl
   0028 EB            [ 4]   83 	ex	de,hl
   0029 21r02r00      [10]   84 	ld	hl, #(_game_map + 0x0002)
   002C 19            [11]   85 	add	hl,de
   002D EB            [ 4]   86 	ex	de,hl
   002E 06 00         [ 7]   87 	ld	b, #0x00
   0030                      88 00104$:
   0030 78            [ 4]   89 	ld	a, b
   0031 DD 96 04      [19]   90 	sub	a, 4 (ix)
   0034 30 09         [12]   91 	jr	NC,00108$
                             92 ;src/game_map.c:17: game_map.tiles[i][j].blocked = FALSE;
   0036 68            [ 4]   93 	ld	l,b
   0037 26 00         [ 7]   94 	ld	h,#0x00
   0039 19            [11]   95 	add	hl, de
   003A 36 00         [10]   96 	ld	(hl), #0x00
                             97 ;src/game_map.c:16: for (j=0; j < width; ++j)
   003C 04            [ 4]   98 	inc	b
   003D 18 F1         [12]   99 	jr	00104$
   003F                     100 00108$:
                            101 ;src/game_map.c:15: for (i=0; i < height; ++i)
   003F 0C            [ 4]  102 	inc	c
   0040 18 D6         [12]  103 	jr	00107$
   0042                     104 00102$:
                            105 ;src/game_map.c:20: game_map.tiles[12][3].blocked = TRUE;
   0042 21r55r01      [10]  106 	ld	hl, #(_game_map + 0x0155)
   0045 36 01         [10]  107 	ld	(hl), #0x01
                            108 ;src/game_map.c:21: game_map.tiles[3][16].blocked = TRUE;
   0047 21r66r00      [10]  109 	ld	hl, #(_game_map + 0x0066)
   004A 36 01         [10]  110 	ld	(hl), #0x01
   004C DD E1         [14]  111 	pop	ix
   004E C9            [10]  112 	ret
                            113 ;src/game_map.c:24: u8 MapIsBlocked (u8 x, u8 y)
                            114 ;	---------------------------------
                            115 ; Function MapIsBlocked
                            116 ; ---------------------------------
   004F                     117 _MapIsBlocked::
   004F DD E5         [15]  118 	push	ix
   0051 DD 21 00 00   [14]  119 	ld	ix,#0
   0055 DD 39         [15]  120 	add	ix,sp
                            121 ;src/game_map.c:26: return game_map.tiles[y][x].blocked;
   0057 DD 4E 05      [19]  122 	ld	c,5 (ix)
   005A 06 00         [ 7]  123 	ld	b,#0x00
   005C 69            [ 4]  124 	ld	l, c
   005D 60            [ 4]  125 	ld	h, b
   005E 29            [11]  126 	add	hl, hl
   005F 09            [11]  127 	add	hl, bc
   0060 29            [11]  128 	add	hl, hl
   0061 09            [11]  129 	add	hl, bc
   0062 29            [11]  130 	add	hl, hl
   0063 29            [11]  131 	add	hl, hl
   0064 11r02r00      [10]  132 	ld	de, #(_game_map + 0x0002)
   0067 19            [11]  133 	add	hl, de
   0068 DD 5E 04      [19]  134 	ld	e, 4 (ix)
   006B 16 00         [ 7]  135 	ld	d,#0x00
   006D 19            [11]  136 	add	hl, de
   006E 6E            [ 7]  137 	ld	l, (hl)
   006F DD E1         [14]  138 	pop	ix
   0071 C9            [10]  139 	ret
                            140 ;src/game_map.c:29: void MapDraw ()
                            141 ;	---------------------------------
                            142 ; Function MapDraw
                            143 ; ---------------------------------
   0072                     144 _MapDraw::
   0072 DD E5         [15]  145 	push	ix
   0074 DD 21 00 00   [14]  146 	ld	ix,#0
   0078 DD 39         [15]  147 	add	ix,sp
   007A 21 FA FF      [10]  148 	ld	hl, #-6
   007D 39            [11]  149 	add	hl, sp
   007E F9            [ 6]  150 	ld	sp, hl
                            151 ;src/game_map.c:36: for (i=0; i < game_map.height; ++i) {
   007F DD 36 FA 00   [19]  152 	ld	-6 (ix), #0x00
   0083                     153 00110$:
   0083 21r01r00      [10]  154 	ld	hl, #_game_map + 1
   0086 DD 7E FA      [19]  155 	ld	a,-6 (ix)
   0089 96            [ 7]  156 	sub	a,(hl)
   008A 30 7A         [12]  157 	jr	NC,00112$
                            158 ;src/game_map.c:37: for (j=0; j < game_map.width; ++j) {
   008C DD 7E FA      [19]  159 	ld	a, -6 (ix)
   008F C6 02         [ 7]  160 	add	a, #0x02
   0091 DD 77 FF      [19]  161 	ld	-1 (ix), a
   0094 01r02r00      [10]  162 	ld	bc, #_game_map + 2
   0097 DD 5E FA      [19]  163 	ld	e,-6 (ix)
   009A 16 00         [ 7]  164 	ld	d,#0x00
   009C 6B            [ 4]  165 	ld	l, e
   009D 62            [ 4]  166 	ld	h, d
   009E 29            [11]  167 	add	hl, hl
   009F 19            [11]  168 	add	hl, de
   00A0 29            [11]  169 	add	hl, hl
   00A1 19            [11]  170 	add	hl, de
   00A2 29            [11]  171 	add	hl, hl
   00A3 29            [11]  172 	add	hl, hl
   00A4 09            [11]  173 	add	hl,bc
   00A5 DD 75 FC      [19]  174 	ld	-4 (ix), l
   00A8 DD 74 FD      [19]  175 	ld	-3 (ix), h
   00AB DD 36 FB 00   [19]  176 	ld	-5 (ix), #0x00
   00AF                     177 00107$:
   00AF 21r00r00      [10]  178 	ld	hl, #_game_map + 0
   00B2 DD 7E FB      [19]  179 	ld	a,-5 (ix)
   00B5 96            [ 7]  180 	sub	a,(hl)
   00B6 30 48         [12]  181 	jr	NC,00111$
                            182 ;src/game_map.c:38: locate (PLAY_X+j,PLAY_Y+i);
   00B8 DD 7E FB      [19]  183 	ld	a, -5 (ix)
   00BB 3C            [ 4]  184 	inc	a
   00BC DD 77 FE      [19]  185 	ld	-2 (ix), a
   00BF DD 66 FF      [19]  186 	ld	h, -1 (ix)
   00C2 DD 6E FE      [19]  187 	ld	l, -2 (ix)
   00C5 E5            [11]  188 	push	hl
   00C6 CDr00r00      [17]  189 	call	_locate
   00C9 F1            [10]  190 	pop	af
                            191 ;src/game_map.c:39: is_wall = game_map.tiles[i][j].blocked;
   00CA DD 7E FC      [19]  192 	ld	a, -4 (ix)
   00CD DD 86 FB      [19]  193 	add	a, -5 (ix)
   00D0 6F            [ 4]  194 	ld	l, a
   00D1 DD 7E FD      [19]  195 	ld	a, -3 (ix)
   00D4 CE 00         [ 7]  196 	adc	a, #0x00
   00D6 67            [ 4]  197 	ld	h, a
   00D7 4E            [ 7]  198 	ld	c, (hl)
                            199 ;src/game_map.c:40: pen (PEN_TILE);
   00D8 C5            [11]  200 	push	bc
   00D9 3E 02         [ 7]  201 	ld	a, #0x02
   00DB F5            [11]  202 	push	af
   00DC 33            [ 6]  203 	inc	sp
   00DD CDr00r00      [17]  204 	call	_pen
   00E0 33            [ 6]  205 	inc	sp
   00E1 C1            [10]  206 	pop	bc
                            207 ;src/game_map.c:41: if (is_wall) {
   00E2 79            [ 4]  208 	ld	a, c
   00E3 B7            [ 4]  209 	or	a, a
   00E4 28 0A         [12]  210 	jr	Z,00102$
                            211 ;src/game_map.c:42: putchar(SPR_WALL);
   00E6 21 23 00      [10]  212 	ld	hl, #0x0023
   00E9 E5            [11]  213 	push	hl
   00EA CDr00r00      [17]  214 	call	_putchar
   00ED F1            [10]  215 	pop	af
   00EE 18 08         [12]  216 	jr	00108$
   00F0                     217 00102$:
                            218 ;src/game_map.c:45: putchar (SPR_FLOOR);
   00F0 21 2E 00      [10]  219 	ld	hl, #0x002e
   00F3 E5            [11]  220 	push	hl
   00F4 CDr00r00      [17]  221 	call	_putchar
   00F7 F1            [10]  222 	pop	af
   00F8                     223 00108$:
                            224 ;src/game_map.c:37: for (j=0; j < game_map.width; ++j) {
   00F8 DD 7E FE      [19]  225 	ld	a, -2 (ix)
   00FB DD 77 FB      [19]  226 	ld	-5 (ix), a
   00FE 18 AF         [12]  227 	jr	00107$
   0100                     228 00111$:
                            229 ;src/game_map.c:36: for (i=0; i < game_map.height; ++i) {
   0100 DD 34 FA      [23]  230 	inc	-6 (ix)
   0103 C3r83r00      [10]  231 	jp	00110$
   0106                     232 00112$:
   0106 DD F9         [10]  233 	ld	sp, ix
   0108 DD E1         [14]  234 	pop	ix
   010A C9            [10]  235 	ret
                            236 	.area _CODE
                            237 	.area _INITIALIZER
                            238 	.area _CABS (ABS)
