                              1 ;--------------------------------------------------------
                              2 ; File Created by SDCC : free open source ANSI-C Compiler
                              3 ; Version 3.6.8 #9946 (Linux)
                              4 ;--------------------------------------------------------
                              5 	.module input_handler
                              6 	.optsdcc -mz80
                              7 	
                              8 ;--------------------------------------------------------
                              9 ; Public variables in this module
                             10 ;--------------------------------------------------------
                             11 	.globl _cpct_isKeyPressed
                             12 	.globl _HandleKeyboard
                             13 ;--------------------------------------------------------
                             14 ; special function registers
                             15 ;--------------------------------------------------------
                             16 ;--------------------------------------------------------
                             17 ; ram data
                             18 ;--------------------------------------------------------
                             19 	.area _DATA
                             20 ;--------------------------------------------------------
                             21 ; ram data
                             22 ;--------------------------------------------------------
                             23 	.area _INITIALIZED
                             24 ;--------------------------------------------------------
                             25 ; absolute external ram data
                             26 ;--------------------------------------------------------
                             27 	.area _DABS (ABS)
                             28 ;--------------------------------------------------------
                             29 ; global & static initialisations
                             30 ;--------------------------------------------------------
                             31 	.area _HOME
                             32 	.area _GSINIT
                             33 	.area _GSFINAL
                             34 	.area _GSINIT
                             35 ;--------------------------------------------------------
                             36 ; Home
                             37 ;--------------------------------------------------------
                             38 	.area _HOME
                             39 	.area _HOME
                             40 ;--------------------------------------------------------
                             41 ; code
                             42 ;--------------------------------------------------------
                             43 	.area _CODE
                             44 ;src/input_handler.c:7: TAction HandleKeyboard (i8 *dx, i8 *dy)
                             45 ;	---------------------------------
                             46 ; Function HandleKeyboard
                             47 ; ---------------------------------
   0000                      48 _HandleKeyboard::
                             49 ;src/input_handler.c:9: if (cpct_isKeyPressed (Key_I)) {  // i: UP
   0000 21 04 08      [10]   50 	ld	hl, #0x0804
   0003 CDr00r00      [17]   51 	call	_cpct_isKeyPressed
   0006 4D            [ 4]   52 	ld	c, l
                             53 ;src/input_handler.c:10: *dx = 0; *dy = -1; return PLAYER_MOVE;
   0007 D1            [10]   54 	pop	de
   0008 E1            [10]   55 	pop	hl
   0009 E5            [11]   56 	push	hl
   000A D5            [11]   57 	push	de
   000B FD 21 04 00   [14]   58 	ld	iy, #4
   000F FD 39         [15]   59 	add	iy, sp
   0011 FD 5E 00      [19]   60 	ld	e,0 (iy)
   0014 FD 56 01      [19]   61 	ld	d,1 (iy)
                             62 ;src/input_handler.c:9: if (cpct_isKeyPressed (Key_I)) {  // i: UP
   0017 79            [ 4]   63 	ld	a, c
   0018 B7            [ 4]   64 	or	a, a
   0019 28 08         [12]   65 	jr	Z,00102$
                             66 ;src/input_handler.c:10: *dx = 0; *dy = -1; return PLAYER_MOVE;
   001B 36 00         [10]   67 	ld	(hl), #0x00
   001D 3E FF         [ 7]   68 	ld	a, #0xff
   001F 12            [ 7]   69 	ld	(de), a
   0020 2E 01         [ 7]   70 	ld	l, #0x01
   0022 C9            [10]   71 	ret
   0023                      72 00102$:
                             73 ;src/input_handler.c:12: if (cpct_isKeyPressed (Key_K)) {  // k: DOWN
   0023 E5            [11]   74 	push	hl
   0024 D5            [11]   75 	push	de
   0025 21 04 20      [10]   76 	ld	hl, #0x2004
   0028 CDr00r00      [17]   77 	call	_cpct_isKeyPressed
   002B 7D            [ 4]   78 	ld	a, l
   002C D1            [10]   79 	pop	de
   002D E1            [10]   80 	pop	hl
   002E B7            [ 4]   81 	or	a, a
   002F 28 08         [12]   82 	jr	Z,00104$
                             83 ;src/input_handler.c:13: *dx = 0; *dy = 1; return PLAYER_MOVE;
   0031 36 00         [10]   84 	ld	(hl), #0x00
   0033 3E 01         [ 7]   85 	ld	a, #0x01
   0035 12            [ 7]   86 	ld	(de), a
   0036 2E 01         [ 7]   87 	ld	l, #0x01
   0038 C9            [10]   88 	ret
   0039                      89 00104$:
                             90 ;src/input_handler.c:15: if (cpct_isKeyPressed (Key_J)) {  // j: LEFT
   0039 E5            [11]   91 	push	hl
   003A D5            [11]   92 	push	de
   003B 21 05 20      [10]   93 	ld	hl, #0x2005
   003E CDr00r00      [17]   94 	call	_cpct_isKeyPressed
   0041 7D            [ 4]   95 	ld	a, l
   0042 D1            [10]   96 	pop	de
   0043 E1            [10]   97 	pop	hl
   0044 B7            [ 4]   98 	or	a, a
   0045 28 07         [12]   99 	jr	Z,00106$
                            100 ;src/input_handler.c:16: *dx = -1; *dy = 0; return PLAYER_MOVE;
   0047 36 FF         [10]  101 	ld	(hl), #0xff
   0049 AF            [ 4]  102 	xor	a, a
   004A 12            [ 7]  103 	ld	(de), a
   004B 2E 01         [ 7]  104 	ld	l, #0x01
   004D C9            [10]  105 	ret
   004E                     106 00106$:
                            107 ;src/input_handler.c:18: if (cpct_isKeyPressed (Key_L)) {  // l: RIGHT
   004E E5            [11]  108 	push	hl
   004F D5            [11]  109 	push	de
   0050 21 04 10      [10]  110 	ld	hl, #0x1004
   0053 CDr00r00      [17]  111 	call	_cpct_isKeyPressed
   0056 7D            [ 4]  112 	ld	a, l
   0057 D1            [10]  113 	pop	de
   0058 E1            [10]  114 	pop	hl
   0059 B7            [ 4]  115 	or	a, a
   005A 28 07         [12]  116 	jr	Z,00108$
                            117 ;src/input_handler.c:19: *dx = 1; *dy = 0; return PLAYER_MOVE;
   005C 36 01         [10]  118 	ld	(hl), #0x01
   005E AF            [ 4]  119 	xor	a, a
   005F 12            [ 7]  120 	ld	(de), a
   0060 2E 01         [ 7]  121 	ld	l, #0x01
   0062 C9            [10]  122 	ret
   0063                     123 00108$:
                            124 ;src/input_handler.c:21: if (cpct_isKeyPressed (Key_S)) {  // s: WAIT
   0063 21 07 10      [10]  125 	ld	hl, #0x1007
   0066 CDr00r00      [17]  126 	call	_cpct_isKeyPressed
   0069 7D            [ 4]  127 	ld	a, l
   006A B7            [ 4]  128 	or	a, a
   006B 28 03         [12]  129 	jr	Z,00110$
                            130 ;src/input_handler.c:22: return PLAYER_MOVE;
   006D 2E 01         [ 7]  131 	ld	l, #0x01
   006F C9            [10]  132 	ret
   0070                     133 00110$:
                            134 ;src/input_handler.c:24: return NONE;
   0070 2E 00         [ 7]  135 	ld	l, #0x00
   0072 C9            [10]  136 	ret
                            137 	.area _CODE
                            138 	.area _INITIALIZER
                            139 	.area _CABS (ABS)
