                              1 ;--------------------------------------------------------
                              2 ; File Created by SDCC : free open source ANSI-C Compiler
                              3 ; Version 3.6.8 #9946 (Linux)
                              4 ;--------------------------------------------------------
                              5 	.module logo
                              6 	.optsdcc -mz80
                              7 	
                              8 ;--------------------------------------------------------
                              9 ; Public variables in this module
                             10 ;--------------------------------------------------------
                             11 	.globl _ShowLogo
                             12 	.globl _PrintAt
                             13 	.globl _pen
                             14 	.globl _paper
                             15 	.globl _ink
                             16 	.globl _putchar
                             17 	.globl _cpct_setVideoMode
                             18 	.globl _cpct_isKeyPressed
                             19 	.globl _cpct_scanKeyboard
                             20 ;--------------------------------------------------------
                             21 ; special function registers
                             22 ;--------------------------------------------------------
                             23 ;--------------------------------------------------------
                             24 ; ram data
                             25 ;--------------------------------------------------------
                             26 	.area _DATA
                             27 ;--------------------------------------------------------
                             28 ; ram data
                             29 ;--------------------------------------------------------
                             30 	.area _INITIALIZED
                             31 ;--------------------------------------------------------
                             32 ; absolute external ram data
                             33 ;--------------------------------------------------------
                             34 	.area _DABS (ABS)
                             35 ;--------------------------------------------------------
                             36 ; global & static initialisations
                             37 ;--------------------------------------------------------
                             38 	.area _HOME
                             39 	.area _GSINIT
                             40 	.area _GSFINAL
                             41 	.area _GSINIT
                             42 ;--------------------------------------------------------
                             43 ; Home
                             44 ;--------------------------------------------------------
                             45 	.area _HOME
                             46 	.area _HOME
                             47 ;--------------------------------------------------------
                             48 ; code
                             49 ;--------------------------------------------------------
                             50 	.area _CODE
                             51 ;src/logo.c:4: void ShowLogo()
                             52 ;	---------------------------------
                             53 ; Function ShowLogo
                             54 ; ---------------------------------
   0000                      55 _ShowLogo::
                             56 ;src/logo.c:6: ink (0,0,0); ink (1,0,0); ink (2,0,0);    // Black used palette colors
   0000 21 00 00      [10]   57 	ld	hl, #0x0000
   0003 E5            [11]   58 	push	hl
   0004 AF            [ 4]   59 	xor	a, a
   0005 F5            [11]   60 	push	af
   0006 33            [ 6]   61 	inc	sp
   0007 CDr00r00      [17]   62 	call	_ink
   000A 33            [ 6]   63 	inc	sp
   000B 21 00 00      [10]   64 	ld	hl,#0x0000
   000E E3            [19]   65 	ex	(sp),hl
   000F 3E 01         [ 7]   66 	ld	a, #0x01
   0011 F5            [11]   67 	push	af
   0012 33            [ 6]   68 	inc	sp
   0013 CDr00r00      [17]   69 	call	_ink
   0016 33            [ 6]   70 	inc	sp
   0017 21 00 00      [10]   71 	ld	hl,#0x0000
   001A E3            [19]   72 	ex	(sp),hl
   001B 3E 02         [ 7]   73 	ld	a, #0x02
   001D F5            [11]   74 	push	af
   001E 33            [ 6]   75 	inc	sp
   001F CDr00r00      [17]   76 	call	_ink
   0022 F1            [10]   77 	pop	af
   0023 33            [ 6]   78 	inc	sp
                             79 ;src/logo.c:7: cpct_setVideoMode (1);                    // Set Vide Mode 1 (40x25)
   0024 2E 01         [ 7]   80 	ld	l, #0x01
   0026 CDr00r00      [17]   81 	call	_cpct_setVideoMode
                             82 ;src/conio.h:9: putchar (GS);
   0029 21 1D 00      [10]   83 	ld	hl, #0x001d
   002C E5            [11]   84 	push	hl
   002D CDr00r00      [17]   85 	call	_putchar
                             86 ;src/conio.h:10: putchar (color1); putchar (color1);
   0030 21 01 00      [10]   87 	ld	hl, #0x0001
   0033 E3            [19]   88 	ex	(sp),hl
   0034 CDr00r00      [17]   89 	call	_putchar
   0037 21 01 00      [10]   90 	ld	hl, #0x0001
   003A E3            [19]   91 	ex	(sp),hl
   003B CDr00r00      [17]   92 	call	_putchar
   003E F1            [10]   93 	pop	af
                             94 ;src/logo.c:8: border (1); paper (0); pen (1);
   003F AF            [ 4]   95 	xor	a, a
   0040 F5            [11]   96 	push	af
   0041 33            [ 6]   97 	inc	sp
   0042 CDr00r00      [17]   98 	call	_paper
   0045 33            [ 6]   99 	inc	sp
   0046 3E 01         [ 7]  100 	ld	a, #0x01
   0048 F5            [11]  101 	push	af
   0049 33            [ 6]  102 	inc	sp
   004A CDr00r00      [17]  103 	call	_pen
   004D 33            [ 6]  104 	inc	sp
                            105 ;src/logo.c:10: PrintAt (1,5, "      )   ___    _____    )   ___", 0xff);
   004E 3E FF         [ 7]  106 	ld	a, #0xff
   0050 F5            [11]  107 	push	af
   0051 33            [ 6]  108 	inc	sp
   0052 21r6Cr01      [10]  109 	ld	hl, #___str_0
   0055 E5            [11]  110 	push	hl
   0056 21 01 05      [10]  111 	ld	hl, #0x0501
   0059 E5            [11]  112 	push	hl
   005A CDr00r00      [17]  113 	call	_PrintAt
   005D F1            [10]  114 	pop	af
   005E F1            [10]  115 	pop	af
   005F 33            [ 6]  116 	inc	sp
                            117 ;src/logo.c:11: PrintAt (1,6, "     (__/_____) (, /   ) (__/_____)", 0xff);
   0060 3E FF         [ 7]  118 	ld	a, #0xff
   0062 F5            [11]  119 	push	af
   0063 33            [ 6]  120 	inc	sp
   0064 21r8Er01      [10]  121 	ld	hl, #___str_1
   0067 E5            [11]  122 	push	hl
   0068 21 01 06      [10]  123 	ld	hl, #0x0601
   006B E5            [11]  124 	push	hl
   006C CDr00r00      [17]  125 	call	_PrintAt
   006F F1            [10]  126 	pop	af
   0070 F1            [10]  127 	pop	af
   0071 33            [ 6]  128 	inc	sp
                            129 ;src/logo.c:12: PrintAt (1,7, "       /         _/__ /    /", 0xff);
   0072 3E FF         [ 7]  130 	ld	a, #0xff
   0074 F5            [11]  131 	push	af
   0075 33            [ 6]  132 	inc	sp
   0076 21rB2r01      [10]  133 	ld	hl, #___str_2
   0079 E5            [11]  134 	push	hl
   007A 21 01 07      [10]  135 	ld	hl, #0x0701
   007D E5            [11]  136 	push	hl
   007E CDr00r00      [17]  137 	call	_PrintAt
   0081 F1            [10]  138 	pop	af
   0082 F1            [10]  139 	pop	af
   0083 33            [ 6]  140 	inc	sp
                            141 ;src/logo.c:13: PrintAt (1,8, "      /          /        /", 0xff);
   0084 3E FF         [ 7]  142 	ld	a, #0xff
   0086 F5            [11]  143 	push	af
   0087 33            [ 6]  144 	inc	sp
   0088 21rCFr01      [10]  145 	ld	hl, #___str_3
   008B E5            [11]  146 	push	hl
   008C 21 01 08      [10]  147 	ld	hl, #0x0801
   008F E5            [11]  148 	push	hl
   0090 CDr00r00      [17]  149 	call	_PrintAt
   0093 F1            [10]  150 	pop	af
   0094 F1            [10]  151 	pop	af
   0095 33            [ 6]  152 	inc	sp
                            153 ;src/logo.c:14: PrintAt (1,9, "     (______) ) /        (______)", 0xff);
   0096 3E FF         [ 7]  154 	ld	a, #0xff
   0098 F5            [11]  155 	push	af
   0099 33            [ 6]  156 	inc	sp
   009A 21rEBr01      [10]  157 	ld	hl, #___str_4
   009D E5            [11]  158 	push	hl
   009E 21 01 09      [10]  159 	ld	hl, #0x0901
   00A1 E5            [11]  160 	push	hl
   00A2 CDr00r00      [17]  161 	call	_PrintAt
   00A5 F1            [10]  162 	pop	af
   00A6 F1            [10]  163 	pop	af
   00A7 33            [ 6]  164 	inc	sp
                            165 ;src/logo.c:15: PrintAt (1,10, "            _(_/_", 0xff);
   00A8 3E FF         [ 7]  166 	ld	a, #0xff
   00AA F5            [11]  167 	push	af
   00AB 33            [ 6]  168 	inc	sp
   00AC 21r0Dr02      [10]  169 	ld	hl, #___str_5
   00AF E5            [11]  170 	push	hl
   00B0 21 01 0A      [10]  171 	ld	hl, #0x0a01
   00B3 E5            [11]  172 	push	hl
   00B4 CDr00r00      [17]  173 	call	_PrintAt
   00B7 F1            [10]  174 	pop	af
   00B8 F1            [10]  175 	pop	af
   00B9 33            [ 6]  176 	inc	sp
                            177 ;src/logo.c:16: PrintAt (1,11, "           (, /   )", 0xff);
   00BA 3E FF         [ 7]  178 	ld	a, #0xff
   00BC F5            [11]  179 	push	af
   00BD 33            [ 6]  180 	inc	sp
   00BE 21r1Fr02      [10]  181 	ld	hl, #___str_6
   00C1 E5            [11]  182 	push	hl
   00C2 21 01 0B      [10]  183 	ld	hl, #0x0b01
   00C5 E5            [11]  184 	push	hl
   00C6 CDr00r00      [17]  185 	call	_PrintAt
   00C9 F1            [10]  186 	pop	af
   00CA F1            [10]  187 	pop	af
   00CB 33            [ 6]  188 	inc	sp
                            189 ;src/logo.c:17: PrintAt (1,12, "             /__ / ___      _", 0xff);
   00CC 3E FF         [ 7]  190 	ld	a, #0xff
   00CE F5            [11]  191 	push	af
   00CF 33            [ 6]  192 	inc	sp
   00D0 21r33r02      [10]  193 	ld	hl, #___str_7
   00D3 E5            [11]  194 	push	hl
   00D4 21 01 0C      [10]  195 	ld	hl, #0x0c01
   00D7 E5            [11]  196 	push	hl
   00D8 CDr00r00      [17]  197 	call	_PrintAt
   00DB F1            [10]  198 	pop	af
   00DC F1            [10]  199 	pop	af
   00DD 33            [ 6]  200 	inc	sp
                            201 ;src/logo.c:20: PrintAt (1,13, "          ) /   \\_(_(_/(_(_(/_         ", 0xff);
   00DE 3E FF         [ 7]  202 	ld	a, #0xff
   00E0 F5            [11]  203 	push	af
   00E1 33            [ 6]  204 	inc	sp
   00E2 21r51r02      [10]  205 	ld	hl, #___str_8
   00E5 E5            [11]  206 	push	hl
   00E6 21 01 0D      [10]  207 	ld	hl, #0x0d01
   00E9 E5            [11]  208 	push	hl
   00EA CDr00r00      [17]  209 	call	_PrintAt
   00ED F1            [10]  210 	pop	af
   00EE F1            [10]  211 	pop	af
   00EF 33            [ 6]  212 	inc	sp
                            213 ;src/logo.c:21: PrintAt (1,14, "         (_/       .-/                 ", 0xff);
   00F0 3E FF         [ 7]  214 	ld	a, #0xff
   00F2 F5            [11]  215 	push	af
   00F3 33            [ 6]  216 	inc	sp
   00F4 21r79r02      [10]  217 	ld	hl, #___str_9
   00F7 E5            [11]  218 	push	hl
   00F8 21 01 0E      [10]  219 	ld	hl, #0x0e01
   00FB E5            [11]  220 	push	hl
   00FC CDr00r00      [17]  221 	call	_PrintAt
   00FF F1            [10]  222 	pop	af
   0100 F1            [10]  223 	pop	af
   0101 33            [ 6]  224 	inc	sp
                            225 ;src/logo.c:22: PrintAt (1,15, "                  (_/                  ", 0xff);
   0102 3E FF         [ 7]  226 	ld	a, #0xff
   0104 F5            [11]  227 	push	af
   0105 33            [ 6]  228 	inc	sp
   0106 21rA1r02      [10]  229 	ld	hl, #___str_10
   0109 E5            [11]  230 	push	hl
   010A 21 01 0F      [10]  231 	ld	hl, #0x0f01
   010D E5            [11]  232 	push	hl
   010E CDr00r00      [17]  233 	call	_PrintAt
   0111 F1            [10]  234 	pop	af
   0112 F1            [10]  235 	pop	af
   0113 33            [ 6]  236 	inc	sp
                            237 ;src/logo.c:23: PrintAt (10, 18, "PRESS ENTER TO START", 2);
   0114 3E 02         [ 7]  238 	ld	a, #0x02
   0116 F5            [11]  239 	push	af
   0117 33            [ 6]  240 	inc	sp
   0118 21rC9r02      [10]  241 	ld	hl, #___str_11
   011B E5            [11]  242 	push	hl
   011C 21 0A 12      [10]  243 	ld	hl, #0x120a
   011F E5            [11]  244 	push	hl
   0120 CDr00r00      [17]  245 	call	_PrintAt
   0123 F1            [10]  246 	pop	af
                            247 ;src/logo.c:24: ink (0, 3,3); ink (1, 6,15); ink (2, 16,16); border (3);
   0124 33            [ 6]  248 	inc	sp
   0125 21 03 03      [10]  249 	ld	hl,#0x0303
   0128 E3            [19]  250 	ex	(sp),hl
   0129 AF            [ 4]  251 	xor	a, a
   012A F5            [11]  252 	push	af
   012B 33            [ 6]  253 	inc	sp
   012C CDr00r00      [17]  254 	call	_ink
   012F 33            [ 6]  255 	inc	sp
   0130 21 06 0F      [10]  256 	ld	hl,#0x0f06
   0133 E3            [19]  257 	ex	(sp),hl
   0134 3E 01         [ 7]  258 	ld	a, #0x01
   0136 F5            [11]  259 	push	af
   0137 33            [ 6]  260 	inc	sp
   0138 CDr00r00      [17]  261 	call	_ink
   013B 33            [ 6]  262 	inc	sp
   013C 21 10 10      [10]  263 	ld	hl,#0x1010
   013F E3            [19]  264 	ex	(sp),hl
   0140 3E 02         [ 7]  265 	ld	a, #0x02
   0142 F5            [11]  266 	push	af
   0143 33            [ 6]  267 	inc	sp
   0144 CDr00r00      [17]  268 	call	_ink
                            269 ;src/conio.h:9: putchar (GS);
   0147 33            [ 6]  270 	inc	sp
   0148 21 1D 00      [10]  271 	ld	hl,#0x001d
   014B E3            [19]  272 	ex	(sp),hl
   014C CDr00r00      [17]  273 	call	_putchar
                            274 ;src/conio.h:10: putchar (color1); putchar (color1);
   014F 21 03 00      [10]  275 	ld	hl, #0x0003
   0152 E3            [19]  276 	ex	(sp),hl
   0153 CDr00r00      [17]  277 	call	_putchar
   0156 21 03 00      [10]  278 	ld	hl, #0x0003
   0159 E3            [19]  279 	ex	(sp),hl
   015A CDr00r00      [17]  280 	call	_putchar
   015D F1            [10]  281 	pop	af
                            282 ;src/logo.c:27: while (!cpct_isKeyPressed (Key_Return)) {
   015E                     283 00101$:
   015E 21 02 04      [10]  284 	ld	hl, #0x0402
   0161 CDr00r00      [17]  285 	call	_cpct_isKeyPressed
   0164 7D            [ 4]  286 	ld	a, l
   0165 B7            [ 4]  287 	or	a, a
   0166 C0            [11]  288 	ret	NZ
                            289 ;src/logo.c:28: cpct_scanKeyboard ();
   0167 CDr00r00      [17]  290 	call	_cpct_scanKeyboard
   016A 18 F2         [12]  291 	jr	00101$
   016C                     292 ___str_0:
   016C 20 20 20 20 20 20   293 	.ascii "      )   ___    _____    )   ___"
        29 20 20 20 5F 5F
        5F 20 20 20 20 5F
        5F 5F 5F 5F 20 20
        20 20 29 20 20 20
        5F 5F 5F
   018D 00                  294 	.db 0x00
   018E                     295 ___str_1:
   018E 20 20 20 20 20 28   296 	.ascii "     (__/_____) (, /   ) (__/_____)"
        5F 5F 2F 5F 5F 5F
        5F 5F 29 20 28 2C
        20 2F 20 20 20 29
        20 28 5F 5F 2F 5F
        5F 5F 5F 5F 29
   01B1 00                  297 	.db 0x00
   01B2                     298 ___str_2:
   01B2 20 20 20 20 20 20   299 	.ascii "       /         _/__ /    /"
        20 2F 20 20 20 20
        20 20 20 20 20 5F
        2F 5F 5F 20 2F 20
        20 20 20 2F
   01CE 00                  300 	.db 0x00
   01CF                     301 ___str_3:
   01CF 20 20 20 20 20 20   302 	.ascii "      /          /        /"
        2F 20 20 20 20 20
        20 20 20 20 20 2F
        20 20 20 20 20 20
        20 20 2F
   01EA 00                  303 	.db 0x00
   01EB                     304 ___str_4:
   01EB 20 20 20 20 20 28   305 	.ascii "     (______) ) /        (______)"
        5F 5F 5F 5F 5F 5F
        29 20 29 20 2F 20
        20 20 20 20 20 20
        20 28 5F 5F 5F 5F
        5F 5F 29
   020C 00                  306 	.db 0x00
   020D                     307 ___str_5:
   020D 20 20 20 20 20 20   308 	.ascii "            _(_/_"
        20 20 20 20 20 20
        5F 28 5F 2F 5F
   021E 00                  309 	.db 0x00
   021F                     310 ___str_6:
   021F 20 20 20 20 20 20   311 	.ascii "           (, /   )"
        20 20 20 20 20 28
        2C 20 2F 20 20 20
        29
   0232 00                  312 	.db 0x00
   0233                     313 ___str_7:
   0233 20 20 20 20 20 20   314 	.ascii "             /__ / ___      _"
        20 20 20 20 20 20
        20 2F 5F 5F 20 2F
        20 5F 5F 5F 20 20
        20 20 20 20 5F
   0250 00                  315 	.db 0x00
   0251                     316 ___str_8:
   0251 20 20 20 20 20 20   317 	.ascii "          ) /   "
        20 20 20 20 29 20
        2F 20 20 20
   0261 5C                  318 	.db 0x5c
   0262 5F 28 5F 28 5F 2F   319 	.ascii "_(_(_/(_(_(/_         "
        28 5F 28 5F 28 2F
        5F 20 20 20 20 20
        20 20 20 20
   0278 00                  320 	.db 0x00
   0279                     321 ___str_9:
   0279 20 20 20 20 20 20   322 	.ascii "         (_/       .-/                 "
        20 20 20 28 5F 2F
        20 20 20 20 20 20
        20 2E 2D 2F 20 20
        20 20 20 20 20 20
        20 20 20 20 20 20
        20 20 20
   02A0 00                  323 	.db 0x00
   02A1                     324 ___str_10:
   02A1 20 20 20 20 20 20   325 	.ascii "                  (_/                  "
        20 20 20 20 20 20
        20 20 20 20 20 20
        28 5F 2F 20 20 20
        20 20 20 20 20 20
        20 20 20 20 20 20
        20 20 20
   02C8 00                  326 	.db 0x00
   02C9                     327 ___str_11:
   02C9 50 52 45 53 53 20   328 	.ascii "PRESS ENTER TO START"
        45 4E 54 45 52 20
        54 4F 20 53 54 41
        52 54
   02DD 00                  329 	.db 0x00
                            330 	.area _CODE
                            331 	.area _INITIALIZER
                            332 	.area _CABS (ABS)
