                              1 ;--------------------------------------------------------
                              2 ; File Created by SDCC : free open source ANSI-C Compiler
                              3 ; Version 3.6.8 #9946 (Linux)
                              4 ;--------------------------------------------------------
                              5 	.module main
                              6 	.optsdcc -mz80
                              7 	
                              8 ;--------------------------------------------------------
                              9 ; Public variables in this module
                             10 ;--------------------------------------------------------
                             11 	.globl _main
                             12 	.globl _PrintCharacterStats
                             13 	.globl _InitializeCharacter
                             14 	.globl _cls
                             15 	.globl _pen
                             16 	.globl _paper
                             17 	.globl _border
                             18 	.globl _ink
                             19 	.globl _locate
                             20 	.globl _putchar
                             21 	.globl _printf
                             22 	.globl _cpct_setVideoMode
                             23 	.globl _cpct_isKeyPressed
                             24 	.globl _cpct_scanKeyboard
                             25 ;--------------------------------------------------------
                             26 ; special function registers
                             27 ;--------------------------------------------------------
                             28 ;--------------------------------------------------------
                             29 ; ram data
                             30 ;--------------------------------------------------------
                             31 	.area _DATA
                             32 ;--------------------------------------------------------
                             33 ; ram data
                             34 ;--------------------------------------------------------
                             35 	.area _INITIALIZED
                             36 ;--------------------------------------------------------
                             37 ; absolute external ram data
                             38 ;--------------------------------------------------------
                             39 	.area _DABS (ABS)
                             40 ;--------------------------------------------------------
                             41 ; global & static initialisations
                             42 ;--------------------------------------------------------
                             43 	.area _HOME
                             44 	.area _GSINIT
                             45 	.area _GSFINAL
                             46 	.area _GSINIT
                             47 ;--------------------------------------------------------
                             48 ; Home
                             49 ;--------------------------------------------------------
                             50 	.area _HOME
                             51 	.area _HOME
                             52 ;--------------------------------------------------------
                             53 ; code
                             54 ;--------------------------------------------------------
                             55 	.area _CODE
                             56 ;src/main.c:50: void locate (u8 x, u8 y)
                             57 ;	---------------------------------
                             58 ; Function locate
                             59 ; ---------------------------------
   0000                      60 _locate::
                             61 ;src/main.c:52: putchar(US);
   0000 21 1F 00      [10]   62 	ld	hl, #0x001f
   0003 E5            [11]   63 	push	hl
   0004 CDr00r00      [17]   64 	call	_putchar
   0007 F1            [10]   65 	pop	af
                             66 ;src/main.c:53: putchar (x); putchar (y);
   0008 21 02 00      [10]   67 	ld	hl, #2+0
   000B 39            [11]   68 	add	hl, sp
   000C 4E            [ 7]   69 	ld	c, (hl)
   000D 06 00         [ 7]   70 	ld	b, #0x00
   000F C5            [11]   71 	push	bc
   0010 CDr00r00      [17]   72 	call	_putchar
   0013 F1            [10]   73 	pop	af
   0014 21 03 00      [10]   74 	ld	hl, #3+0
   0017 39            [11]   75 	add	hl, sp
   0018 4E            [ 7]   76 	ld	c, (hl)
   0019 06 00         [ 7]   77 	ld	b, #0x00
   001B C5            [11]   78 	push	bc
   001C CDr00r00      [17]   79 	call	_putchar
   001F F1            [10]   80 	pop	af
   0020 C9            [10]   81 	ret
                             82 ;src/main.c:55: void ink (u8 tinta, u8 color1, u8 color2)
                             83 ;	---------------------------------
                             84 ; Function ink
                             85 ; ---------------------------------
   0021                      86 _ink::
                             87 ;src/main.c:57: putchar (FS);
   0021 21 1C 00      [10]   88 	ld	hl, #0x001c
   0024 E5            [11]   89 	push	hl
   0025 CDr00r00      [17]   90 	call	_putchar
   0028 F1            [10]   91 	pop	af
                             92 ;src/main.c:58: putchar (tinta); putchar (color1); putchar (color2);
   0029 21 02 00      [10]   93 	ld	hl, #2+0
   002C 39            [11]   94 	add	hl, sp
   002D 4E            [ 7]   95 	ld	c, (hl)
   002E 06 00         [ 7]   96 	ld	b, #0x00
   0030 C5            [11]   97 	push	bc
   0031 CDr00r00      [17]   98 	call	_putchar
   0034 F1            [10]   99 	pop	af
   0035 21 03 00      [10]  100 	ld	hl, #3+0
   0038 39            [11]  101 	add	hl, sp
   0039 4E            [ 7]  102 	ld	c, (hl)
   003A 06 00         [ 7]  103 	ld	b, #0x00
   003C C5            [11]  104 	push	bc
   003D CDr00r00      [17]  105 	call	_putchar
   0040 F1            [10]  106 	pop	af
   0041 21 04 00      [10]  107 	ld	hl, #4+0
   0044 39            [11]  108 	add	hl, sp
   0045 4E            [ 7]  109 	ld	c, (hl)
   0046 06 00         [ 7]  110 	ld	b, #0x00
   0048 C5            [11]  111 	push	bc
   0049 CDr00r00      [17]  112 	call	_putchar
   004C F1            [10]  113 	pop	af
   004D C9            [10]  114 	ret
                            115 ;src/main.c:60: void border (u8 color1, u8 color2)
                            116 ;	---------------------------------
                            117 ; Function border
                            118 ; ---------------------------------
   004E                     119 _border::
                            120 ;src/main.c:62: putchar (GS);
   004E 21 1D 00      [10]  121 	ld	hl, #0x001d
   0051 E5            [11]  122 	push	hl
   0052 CDr00r00      [17]  123 	call	_putchar
   0055 F1            [10]  124 	pop	af
                            125 ;src/main.c:63: putchar (color1); putchar (color2);
   0056 21 02 00      [10]  126 	ld	hl, #2+0
   0059 39            [11]  127 	add	hl, sp
   005A 4E            [ 7]  128 	ld	c, (hl)
   005B 06 00         [ 7]  129 	ld	b, #0x00
   005D C5            [11]  130 	push	bc
   005E CDr00r00      [17]  131 	call	_putchar
   0061 F1            [10]  132 	pop	af
   0062 21 03 00      [10]  133 	ld	hl, #3+0
   0065 39            [11]  134 	add	hl, sp
   0066 4E            [ 7]  135 	ld	c, (hl)
   0067 06 00         [ 7]  136 	ld	b, #0x00
   0069 C5            [11]  137 	push	bc
   006A CDr00r00      [17]  138 	call	_putchar
   006D F1            [10]  139 	pop	af
   006E C9            [10]  140 	ret
                            141 ;src/main.c:66: void paper (u8 color1)
                            142 ;	---------------------------------
                            143 ; Function paper
                            144 ; ---------------------------------
   006F                     145 _paper::
                            146 ;src/main.c:68: putchar (SO);
   006F 21 0E 00      [10]  147 	ld	hl, #0x000e
   0072 E5            [11]  148 	push	hl
   0073 CDr00r00      [17]  149 	call	_putchar
   0076 F1            [10]  150 	pop	af
                            151 ;src/main.c:69: putchar (color1);
   0077 21 02 00      [10]  152 	ld	hl, #2+0
   007A 39            [11]  153 	add	hl, sp
   007B 4E            [ 7]  154 	ld	c, (hl)
   007C 06 00         [ 7]  155 	ld	b, #0x00
   007E C5            [11]  156 	push	bc
   007F CDr00r00      [17]  157 	call	_putchar
   0082 F1            [10]  158 	pop	af
   0083 C9            [10]  159 	ret
                            160 ;src/main.c:71: void pen (u8 tinta)
                            161 ;	---------------------------------
                            162 ; Function pen
                            163 ; ---------------------------------
   0084                     164 _pen::
                            165 ;src/main.c:73: putchar (SI);
   0084 21 0F 00      [10]  166 	ld	hl, #0x000f
   0087 E5            [11]  167 	push	hl
   0088 CDr00r00      [17]  168 	call	_putchar
   008B F1            [10]  169 	pop	af
                            170 ;src/main.c:74: putchar (tinta);
   008C 21 02 00      [10]  171 	ld	hl, #2+0
   008F 39            [11]  172 	add	hl, sp
   0090 4E            [ 7]  173 	ld	c, (hl)
   0091 06 00         [ 7]  174 	ld	b, #0x00
   0093 C5            [11]  175 	push	bc
   0094 CDr00r00      [17]  176 	call	_putchar
   0097 F1            [10]  177 	pop	af
   0098 C9            [10]  178 	ret
                            179 ;src/main.c:76: void cls ()
                            180 ;	---------------------------------
                            181 ; Function cls
                            182 ; ---------------------------------
   0099                     183 _cls::
                            184 ;src/main.c:78: putchar (FF);
   0099 21 0C 00      [10]  185 	ld	hl, #0x000c
   009C E5            [11]  186 	push	hl
   009D CDr00r00      [17]  187 	call	_putchar
   00A0 F1            [10]  188 	pop	af
   00A1 C9            [10]  189 	ret
                            190 ;src/main.c:83: void InitializeCharacter (struct TCharacter *c,
                            191 ;	---------------------------------
                            192 ; Function InitializeCharacter
                            193 ; ---------------------------------
   00A2                     194 _InitializeCharacter::
   00A2 DD E5         [15]  195 	push	ix
   00A4 DD 21 00 00   [14]  196 	ld	ix,#0
   00A8 DD 39         [15]  197 	add	ix,sp
   00AA 21 F6 FF      [10]  198 	ld	hl, #-10
   00AD 39            [11]  199 	add	hl, sp
   00AE F9            [ 6]  200 	ld	sp, hl
                            201 ;src/main.c:86: c->_hp = hp;
   00AF DD 4E 04      [19]  202 	ld	c,4 (ix)
   00B2 DD 46 05      [19]  203 	ld	b,5 (ix)
   00B5 69            [ 4]  204 	ld	l, c
   00B6 60            [ 4]  205 	ld	h, b
   00B7 DD 7E 06      [19]  206 	ld	a, 6 (ix)
   00BA 77            [ 7]  207 	ld	(hl), a
   00BB 23            [ 6]  208 	inc	hl
   00BC DD 7E 07      [19]  209 	ld	a, 7 (ix)
   00BF 77            [ 7]  210 	ld	(hl), a
                            211 ;src/main.c:87: c->_str = str;
   00C0 59            [ 4]  212 	ld	e, c
   00C1 50            [ 4]  213 	ld	d, b
   00C2 13            [ 6]  214 	inc	de
   00C3 13            [ 6]  215 	inc	de
   00C4 DD 7E 08      [19]  216 	ld	a, 8 (ix)
   00C7 12            [ 7]  217 	ld	(de), a
                            218 ;src/main.c:88: c->_destr = destr;
   00C8 59            [ 4]  219 	ld	e, c
   00C9 50            [ 4]  220 	ld	d, b
   00CA 13            [ 6]  221 	inc	de
   00CB 13            [ 6]  222 	inc	de
   00CC 13            [ 6]  223 	inc	de
   00CD DD 7E 09      [19]  224 	ld	a, 9 (ix)
   00D0 12            [ 7]  225 	ld	(de), a
                            226 ;src/main.c:89: c->_refl = refl;
   00D1 21 04 00      [10]  227 	ld	hl, #0x0004
   00D4 09            [11]  228 	add	hl, bc
   00D5 DD 7E 0A      [19]  229 	ld	a, 10 (ix)
   00D8 77            [ 7]  230 	ld	(hl), a
                            231 ;src/main.c:90: c->_spr = spr;
   00D9 21 09 00      [10]  232 	ld	hl, #0x0009
   00DC 09            [11]  233 	add	hl, bc
   00DD DD 7E 0B      [19]  234 	ld	a, 11 (ix)
   00E0 77            [ 7]  235 	ld	(hl), a
                            236 ;src/main.c:91: c->_atk = 1.5 * c->_str + c->_destr;
   00E1 21 05 00      [10]  237 	ld	hl, #0x0005
   00E4 09            [11]  238 	add	hl,bc
   00E5 DD 75 FE      [19]  239 	ld	-2 (ix), l
   00E8 DD 74 FF      [19]  240 	ld	-1 (ix), h
   00EB C5            [11]  241 	push	bc
   00EC DD 7E 08      [19]  242 	ld	a, 8 (ix)
   00EF F5            [11]  243 	push	af
   00F0 33            [ 6]  244 	inc	sp
   00F1 CDr00r00      [17]  245 	call	___uchar2fs
   00F4 33            [ 6]  246 	inc	sp
   00F5 EB            [ 4]  247 	ex	de, hl
   00F6 E5            [11]  248 	push	hl
   00F7 D5            [11]  249 	push	de
   00F8 21 C0 3F      [10]  250 	ld	hl, #0x3fc0
   00FB E5            [11]  251 	push	hl
   00FC 21 00 00      [10]  252 	ld	hl, #0x0000
   00FF E5            [11]  253 	push	hl
   0100 CDr00r00      [17]  254 	call	___fsmul
   0103 F1            [10]  255 	pop	af
   0104 F1            [10]  256 	pop	af
   0105 F1            [10]  257 	pop	af
   0106 F1            [10]  258 	pop	af
   0107 DD 72 FD      [19]  259 	ld	-3 (ix), d
   010A DD 73 FC      [19]  260 	ld	-4 (ix), e
   010D DD 74 FB      [19]  261 	ld	-5 (ix), h
   0110 DD 75 FA      [19]  262 	ld	-6 (ix), l
   0113 C1            [10]  263 	pop	bc
   0114 DD 5E 09      [19]  264 	ld	e, 9 (ix)
   0117 16 00         [ 7]  265 	ld	d, #0x00
   0119 C5            [11]  266 	push	bc
   011A D5            [11]  267 	push	de
   011B CDr00r00      [17]  268 	call	___sint2fs
   011E F1            [10]  269 	pop	af
   011F EB            [ 4]  270 	ex	de, hl
   0120 E5            [11]  271 	push	hl
   0121 D5            [11]  272 	push	de
   0122 DD 6E FC      [19]  273 	ld	l,-4 (ix)
   0125 DD 66 FD      [19]  274 	ld	h,-3 (ix)
   0128 E5            [11]  275 	push	hl
   0129 DD 6E FA      [19]  276 	ld	l,-6 (ix)
   012C DD 66 FB      [19]  277 	ld	h,-5 (ix)
   012F E5            [11]  278 	push	hl
   0130 CDr00r00      [17]  279 	call	___fsadd
   0133 F1            [10]  280 	pop	af
   0134 F1            [10]  281 	pop	af
   0135 F1            [10]  282 	pop	af
   0136 F1            [10]  283 	pop	af
   0137 D5            [11]  284 	push	de
   0138 E5            [11]  285 	push	hl
   0139 CDr00r00      [17]  286 	call	___fs2uint
   013C F1            [10]  287 	pop	af
   013D F1            [10]  288 	pop	af
   013E EB            [ 4]  289 	ex	de,hl
   013F C1            [10]  290 	pop	bc
   0140 DD 6E FE      [19]  291 	ld	l,-2 (ix)
   0143 DD 66 FF      [19]  292 	ld	h,-1 (ix)
   0146 73            [ 7]  293 	ld	(hl), e
   0147 23            [ 6]  294 	inc	hl
   0148 72            [ 7]  295 	ld	(hl), d
                            296 ;src/main.c:92: c->_defense = 1.5 * c->_destr + c->_refl;
   0149 21 07 00      [10]  297 	ld	hl, #0x0007
   014C 09            [11]  298 	add	hl,bc
   014D DD 75 FA      [19]  299 	ld	-6 (ix), l
   0150 DD 74 FB      [19]  300 	ld	-5 (ix), h
   0153 DD 7E 09      [19]  301 	ld	a, 9 (ix)
   0156 F5            [11]  302 	push	af
   0157 33            [ 6]  303 	inc	sp
   0158 CDr00r00      [17]  304 	call	___uchar2fs
   015B 33            [ 6]  305 	inc	sp
   015C EB            [ 4]  306 	ex	de, hl
   015D E5            [11]  307 	push	hl
   015E D5            [11]  308 	push	de
   015F 21 C0 3F      [10]  309 	ld	hl, #0x3fc0
   0162 E5            [11]  310 	push	hl
   0163 21 00 00      [10]  311 	ld	hl, #0x0000
   0166 E5            [11]  312 	push	hl
   0167 CDr00r00      [17]  313 	call	___fsmul
   016A F1            [10]  314 	pop	af
   016B F1            [10]  315 	pop	af
   016C F1            [10]  316 	pop	af
   016D F1            [10]  317 	pop	af
   016E DD 72 F9      [19]  318 	ld	-7 (ix), d
   0171 DD 73 F8      [19]  319 	ld	-8 (ix), e
   0174 DD 74 F7      [19]  320 	ld	-9 (ix), h
   0177 DD 75 F6      [19]  321 	ld	-10 (ix), l
   017A DD 4E 0A      [19]  322 	ld	c, 10 (ix)
   017D 06 00         [ 7]  323 	ld	b, #0x00
   017F C5            [11]  324 	push	bc
   0180 CDr00r00      [17]  325 	call	___sint2fs
   0183 F1            [10]  326 	pop	af
   0184 EB            [ 4]  327 	ex	de, hl
   0185 E5            [11]  328 	push	hl
   0186 D5            [11]  329 	push	de
   0187 DD 6E F8      [19]  330 	ld	l,-8 (ix)
   018A DD 66 F9      [19]  331 	ld	h,-7 (ix)
   018D E5            [11]  332 	push	hl
   018E DD 6E F6      [19]  333 	ld	l,-10 (ix)
   0191 DD 66 F7      [19]  334 	ld	h,-9 (ix)
   0194 E5            [11]  335 	push	hl
   0195 CDr00r00      [17]  336 	call	___fsadd
   0198 F1            [10]  337 	pop	af
   0199 F1            [10]  338 	pop	af
   019A F1            [10]  339 	pop	af
   019B F1            [10]  340 	pop	af
   019C D5            [11]  341 	push	de
   019D E5            [11]  342 	push	hl
   019E CDr00r00      [17]  343 	call	___fs2uint
   01A1 F1            [10]  344 	pop	af
   01A2 F1            [10]  345 	pop	af
   01A3 4D            [ 4]  346 	ld	c, l
   01A4 44            [ 4]  347 	ld	b, h
   01A5 DD 6E FA      [19]  348 	ld	l,-6 (ix)
   01A8 DD 66 FB      [19]  349 	ld	h,-5 (ix)
   01AB 71            [ 7]  350 	ld	(hl), c
   01AC 23            [ 6]  351 	inc	hl
   01AD 70            [ 7]  352 	ld	(hl), b
   01AE DD F9         [10]  353 	ld	sp, ix
   01B0 DD E1         [14]  354 	pop	ix
   01B2 C9            [10]  355 	ret
                            356 ;src/main.c:97: void PrintCharacterStats (struct TCharacter *c,
                            357 ;	---------------------------------
                            358 ; Function PrintCharacterStats
                            359 ; ---------------------------------
   01B3                     360 _PrintCharacterStats::
   01B3 DD E5         [15]  361 	push	ix
   01B5 DD 21 00 00   [14]  362 	ld	ix,#0
   01B9 DD 39         [15]  363 	add	ix,sp
   01BB F5            [11]  364 	push	af
                            365 ;src/main.c:100: pen (color1);printf ("STR "); pen (color2);printf ("[%d] ", c->_str);
   01BC DD 7E 06      [19]  366 	ld	a, 6 (ix)
   01BF F5            [11]  367 	push	af
   01C0 33            [ 6]  368 	inc	sp
   01C1 CDr84r00      [17]  369 	call	_pen
   01C4 33            [ 6]  370 	inc	sp
   01C5 21rD2r02      [10]  371 	ld	hl, #___str_0
   01C8 E5            [11]  372 	push	hl
   01C9 CDr00r00      [17]  373 	call	_printf
   01CC F1            [10]  374 	pop	af
   01CD DD 7E 07      [19]  375 	ld	a, 7 (ix)
   01D0 F5            [11]  376 	push	af
   01D1 33            [ 6]  377 	inc	sp
   01D2 CDr84r00      [17]  378 	call	_pen
   01D5 33            [ 6]  379 	inc	sp
   01D6 DD 7E 04      [19]  380 	ld	a, 4 (ix)
   01D9 DD 77 FE      [19]  381 	ld	-2 (ix), a
   01DC DD 7E 05      [19]  382 	ld	a, 5 (ix)
   01DF DD 77 FF      [19]  383 	ld	-1 (ix), a
   01E2 E1            [10]  384 	pop	hl
   01E3 E5            [11]  385 	push	hl
   01E4 23            [ 6]  386 	inc	hl
   01E5 23            [ 6]  387 	inc	hl
   01E6 4E            [ 7]  388 	ld	c, (hl)
   01E7 06 00         [ 7]  389 	ld	b, #0x00
   01E9 C5            [11]  390 	push	bc
   01EA 21rD7r02      [10]  391 	ld	hl, #___str_1
   01ED E5            [11]  392 	push	hl
   01EE CDr00r00      [17]  393 	call	_printf
   01F1 F1            [10]  394 	pop	af
   01F2 F1            [10]  395 	pop	af
                            396 ;src/main.c:101: pen (color1);printf ("DES "); pen (color2);printf ("[%d] ", c->_destr);
   01F3 DD 7E 06      [19]  397 	ld	a, 6 (ix)
   01F6 F5            [11]  398 	push	af
   01F7 33            [ 6]  399 	inc	sp
   01F8 CDr84r00      [17]  400 	call	_pen
   01FB 33            [ 6]  401 	inc	sp
   01FC 21rDDr02      [10]  402 	ld	hl, #___str_2
   01FF E5            [11]  403 	push	hl
   0200 CDr00r00      [17]  404 	call	_printf
   0203 F1            [10]  405 	pop	af
   0204 DD 7E 07      [19]  406 	ld	a, 7 (ix)
   0207 F5            [11]  407 	push	af
   0208 33            [ 6]  408 	inc	sp
   0209 CDr84r00      [17]  409 	call	_pen
   020C 33            [ 6]  410 	inc	sp
   020D E1            [10]  411 	pop	hl
   020E E5            [11]  412 	push	hl
   020F 23            [ 6]  413 	inc	hl
   0210 23            [ 6]  414 	inc	hl
   0211 23            [ 6]  415 	inc	hl
   0212 4E            [ 7]  416 	ld	c, (hl)
   0213 06 00         [ 7]  417 	ld	b, #0x00
   0215 C5            [11]  418 	push	bc
   0216 21rD7r02      [10]  419 	ld	hl, #___str_1
   0219 E5            [11]  420 	push	hl
   021A CDr00r00      [17]  421 	call	_printf
   021D F1            [10]  422 	pop	af
   021E F1            [10]  423 	pop	af
                            424 ;src/main.c:102: pen (color1);printf ("REF "); pen (color2);printf ("[%d]\r\n", c->_refl);
   021F DD 7E 06      [19]  425 	ld	a, 6 (ix)
   0222 F5            [11]  426 	push	af
   0223 33            [ 6]  427 	inc	sp
   0224 CDr84r00      [17]  428 	call	_pen
   0227 33            [ 6]  429 	inc	sp
   0228 21rE2r02      [10]  430 	ld	hl, #___str_3
   022B E5            [11]  431 	push	hl
   022C CDr00r00      [17]  432 	call	_printf
   022F F1            [10]  433 	pop	af
   0230 DD 7E 07      [19]  434 	ld	a, 7 (ix)
   0233 F5            [11]  435 	push	af
   0234 33            [ 6]  436 	inc	sp
   0235 CDr84r00      [17]  437 	call	_pen
   0238 33            [ 6]  438 	inc	sp
   0239 E1            [10]  439 	pop	hl
   023A E5            [11]  440 	push	hl
   023B 11 04 00      [10]  441 	ld	de, #0x0004
   023E 19            [11]  442 	add	hl, de
   023F 4E            [ 7]  443 	ld	c, (hl)
   0240 06 00         [ 7]  444 	ld	b, #0x00
   0242 C5            [11]  445 	push	bc
   0243 21rE7r02      [10]  446 	ld	hl, #___str_4
   0246 E5            [11]  447 	push	hl
   0247 CDr00r00      [17]  448 	call	_printf
   024A F1            [10]  449 	pop	af
   024B F1            [10]  450 	pop	af
                            451 ;src/main.c:104: pen (color1);printf ("ATK "); pen (color2);printf ("[%d] ", c->_atk);
   024C DD 7E 06      [19]  452 	ld	a, 6 (ix)
   024F F5            [11]  453 	push	af
   0250 33            [ 6]  454 	inc	sp
   0251 CDr84r00      [17]  455 	call	_pen
   0254 33            [ 6]  456 	inc	sp
   0255 21rEEr02      [10]  457 	ld	hl, #___str_5
   0258 E5            [11]  458 	push	hl
   0259 CDr00r00      [17]  459 	call	_printf
   025C F1            [10]  460 	pop	af
   025D DD 7E 07      [19]  461 	ld	a, 7 (ix)
   0260 F5            [11]  462 	push	af
   0261 33            [ 6]  463 	inc	sp
   0262 CDr84r00      [17]  464 	call	_pen
   0265 33            [ 6]  465 	inc	sp
   0266 E1            [10]  466 	pop	hl
   0267 E5            [11]  467 	push	hl
   0268 11 05 00      [10]  468 	ld	de, #0x0005
   026B 19            [11]  469 	add	hl, de
   026C 4E            [ 7]  470 	ld	c, (hl)
   026D 23            [ 6]  471 	inc	hl
   026E 46            [ 7]  472 	ld	b, (hl)
   026F C5            [11]  473 	push	bc
   0270 21rD7r02      [10]  474 	ld	hl, #___str_1
   0273 E5            [11]  475 	push	hl
   0274 CDr00r00      [17]  476 	call	_printf
   0277 F1            [10]  477 	pop	af
   0278 F1            [10]  478 	pop	af
                            479 ;src/main.c:105: pen (color1);printf ("DEF "); pen (color2);printf("[%d] ",c->_defense);
   0279 DD 7E 06      [19]  480 	ld	a, 6 (ix)
   027C F5            [11]  481 	push	af
   027D 33            [ 6]  482 	inc	sp
   027E CDr84r00      [17]  483 	call	_pen
   0281 33            [ 6]  484 	inc	sp
   0282 21rF3r02      [10]  485 	ld	hl, #___str_6
   0285 E5            [11]  486 	push	hl
   0286 CDr00r00      [17]  487 	call	_printf
   0289 F1            [10]  488 	pop	af
   028A DD 7E 07      [19]  489 	ld	a, 7 (ix)
   028D F5            [11]  490 	push	af
   028E 33            [ 6]  491 	inc	sp
   028F CDr84r00      [17]  492 	call	_pen
   0292 33            [ 6]  493 	inc	sp
   0293 E1            [10]  494 	pop	hl
   0294 E5            [11]  495 	push	hl
   0295 11 07 00      [10]  496 	ld	de, #0x0007
   0298 19            [11]  497 	add	hl, de
   0299 4E            [ 7]  498 	ld	c, (hl)
   029A 23            [ 6]  499 	inc	hl
   029B 46            [ 7]  500 	ld	b, (hl)
   029C C5            [11]  501 	push	bc
   029D 21rD7r02      [10]  502 	ld	hl, #___str_1
   02A0 E5            [11]  503 	push	hl
   02A1 CDr00r00      [17]  504 	call	_printf
   02A4 F1            [10]  505 	pop	af
   02A5 F1            [10]  506 	pop	af
                            507 ;src/main.c:106: pen (color1);printf (" HP "); pen (color2);printf ("[%d]\r\n", c->_hp);
   02A6 DD 7E 06      [19]  508 	ld	a, 6 (ix)
   02A9 F5            [11]  509 	push	af
   02AA 33            [ 6]  510 	inc	sp
   02AB CDr84r00      [17]  511 	call	_pen
   02AE 33            [ 6]  512 	inc	sp
   02AF 21rF8r02      [10]  513 	ld	hl, #___str_7
   02B2 E5            [11]  514 	push	hl
   02B3 CDr00r00      [17]  515 	call	_printf
   02B6 F1            [10]  516 	pop	af
   02B7 DD 7E 07      [19]  517 	ld	a, 7 (ix)
   02BA F5            [11]  518 	push	af
   02BB 33            [ 6]  519 	inc	sp
   02BC CDr84r00      [17]  520 	call	_pen
   02BF 33            [ 6]  521 	inc	sp
   02C0 E1            [10]  522 	pop	hl
   02C1 E5            [11]  523 	push	hl
   02C2 4E            [ 7]  524 	ld	c, (hl)
   02C3 23            [ 6]  525 	inc	hl
   02C4 46            [ 7]  526 	ld	b, (hl)
   02C5 C5            [11]  527 	push	bc
   02C6 21rE7r02      [10]  528 	ld	hl, #___str_4
   02C9 E5            [11]  529 	push	hl
   02CA CDr00r00      [17]  530 	call	_printf
   02CD DD F9         [10]  531 	ld	sp,ix
   02CF DD E1         [14]  532 	pop	ix
   02D1 C9            [10]  533 	ret
   02D2                     534 ___str_0:
   02D2 53 54 52 20         535 	.ascii "STR "
   02D6 00                  536 	.db 0x00
   02D7                     537 ___str_1:
   02D7 5B 25 64 5D 20      538 	.ascii "[%d] "
   02DC 00                  539 	.db 0x00
   02DD                     540 ___str_2:
   02DD 44 45 53 20         541 	.ascii "DES "
   02E1 00                  542 	.db 0x00
   02E2                     543 ___str_3:
   02E2 52 45 46 20         544 	.ascii "REF "
   02E6 00                  545 	.db 0x00
   02E7                     546 ___str_4:
   02E7 5B 25 64 5D         547 	.ascii "[%d]"
   02EB 0D                  548 	.db 0x0d
   02EC 0A                  549 	.db 0x0a
   02ED 00                  550 	.db 0x00
   02EE                     551 ___str_5:
   02EE 41 54 4B 20         552 	.ascii "ATK "
   02F2 00                  553 	.db 0x00
   02F3                     554 ___str_6:
   02F3 44 45 46 20         555 	.ascii "DEF "
   02F7 00                  556 	.db 0x00
   02F8                     557 ___str_7:
   02F8 20 48 50 20         558 	.ascii " HP "
   02FC 00                  559 	.db 0x00
                            560 ;src/main.c:111: void main(void) {
                            561 ;	---------------------------------
                            562 ; Function main
                            563 ; ---------------------------------
   02FD                     564 _main::
   02FD DD E5         [15]  565 	push	ix
   02FF 21 EC FF      [10]  566 	ld	hl, #-20
   0302 39            [11]  567 	add	hl, sp
   0303 F9            [ 6]  568 	ld	sp, hl
                            569 ;src/main.c:117: ink (0,0,0); ink (1,0,0); ink (2,0,0);    // Black used palette colors
   0304 21 00 00      [10]  570 	ld	hl, #0x0000
   0307 E5            [11]  571 	push	hl
   0308 AF            [ 4]  572 	xor	a, a
   0309 F5            [11]  573 	push	af
   030A 33            [ 6]  574 	inc	sp
   030B CDr21r00      [17]  575 	call	_ink
   030E 33            [ 6]  576 	inc	sp
   030F 21 00 00      [10]  577 	ld	hl,#0x0000
   0312 E3            [19]  578 	ex	(sp),hl
   0313 3E 01         [ 7]  579 	ld	a, #0x01
   0315 F5            [11]  580 	push	af
   0316 33            [ 6]  581 	inc	sp
   0317 CDr21r00      [17]  582 	call	_ink
   031A 33            [ 6]  583 	inc	sp
   031B 21 00 00      [10]  584 	ld	hl,#0x0000
   031E E3            [19]  585 	ex	(sp),hl
   031F 3E 02         [ 7]  586 	ld	a, #0x02
   0321 F5            [11]  587 	push	af
   0322 33            [ 6]  588 	inc	sp
   0323 CDr21r00      [17]  589 	call	_ink
   0326 F1            [10]  590 	pop	af
   0327 33            [ 6]  591 	inc	sp
                            592 ;src/main.c:118: cpct_setVideoMode (1);                    // Set Vide Mode 1 (40x25)
   0328 2E 01         [ 7]  593 	ld	l, #0x01
   032A CDr00r00      [17]  594 	call	_cpct_setVideoMode
                            595 ;src/main.c:119: border (0,0); paper (0); pen (1);
   032D 21 00 00      [10]  596 	ld	hl, #0x0000
   0330 E5            [11]  597 	push	hl
   0331 CDr4Er00      [17]  598 	call	_border
   0334 F1            [10]  599 	pop	af
   0335 AF            [ 4]  600 	xor	a, a
   0336 F5            [11]  601 	push	af
   0337 33            [ 6]  602 	inc	sp
   0338 CDr6Fr00      [17]  603 	call	_paper
   033B 33            [ 6]  604 	inc	sp
   033C 3E 01         [ 7]  605 	ld	a, #0x01
   033E F5            [11]  606 	push	af
   033F 33            [ 6]  607 	inc	sp
   0340 CDr84r00      [17]  608 	call	_pen
   0343 33            [ 6]  609 	inc	sp
                            610 ;src/main.c:121: locate (0,4);printf ("      )   ___    _____    )   ___      ");
   0344 21 00 04      [10]  611 	ld	hl, #0x0400
   0347 E5            [11]  612 	push	hl
   0348 CDr00r00      [17]  613 	call	_locate
   034B 21rC1r04      [10]  614 	ld	hl, #___str_8
   034E E3            [19]  615 	ex	(sp),hl
   034F CDr00r00      [17]  616 	call	_printf
                            617 ;src/main.c:122: locate (0,5);printf ("     (__/_____) (, /   ) (__/_____)    ");
   0352 21 00 05      [10]  618 	ld	hl, #0x0500
   0355 E3            [19]  619 	ex	(sp),hl
   0356 CDr00r00      [17]  620 	call	_locate
   0359 21rE9r04      [10]  621 	ld	hl, #___str_9
   035C E3            [19]  622 	ex	(sp),hl
   035D CDr00r00      [17]  623 	call	_printf
                            624 ;src/main.c:123: locate (0,6);printf ("       /         _/__ /    /           ");
   0360 21 00 06      [10]  625 	ld	hl, #0x0600
   0363 E3            [19]  626 	ex	(sp),hl
   0364 CDr00r00      [17]  627 	call	_locate
   0367 21r11r05      [10]  628 	ld	hl, #___str_10
   036A E3            [19]  629 	ex	(sp),hl
   036B CDr00r00      [17]  630 	call	_printf
                            631 ;src/main.c:124: locate (0,7);printf ("      /          /        /            ");
   036E 21 00 07      [10]  632 	ld	hl, #0x0700
   0371 E3            [19]  633 	ex	(sp),hl
   0372 CDr00r00      [17]  634 	call	_locate
   0375 21r39r05      [10]  635 	ld	hl, #___str_11
   0378 E3            [19]  636 	ex	(sp),hl
   0379 CDr00r00      [17]  637 	call	_printf
                            638 ;src/main.c:125: locate (0,8);printf ("     (______) ) /        (______)      ");
   037C 21 00 08      [10]  639 	ld	hl, #0x0800
   037F E3            [19]  640 	ex	(sp),hl
   0380 CDr00r00      [17]  641 	call	_locate
   0383 21r61r05      [10]  642 	ld	hl, #___str_12
   0386 E3            [19]  643 	ex	(sp),hl
   0387 CDr00r00      [17]  644 	call	_printf
                            645 ;src/main.c:126: locate (0,9);printf ("            _(_/_                      ");
   038A 21 00 09      [10]  646 	ld	hl, #0x0900
   038D E3            [19]  647 	ex	(sp),hl
   038E CDr00r00      [17]  648 	call	_locate
   0391 21r89r05      [10]  649 	ld	hl, #___str_13
   0394 E3            [19]  650 	ex	(sp),hl
   0395 CDr00r00      [17]  651 	call	_printf
                            652 ;src/main.c:127: locate (0,10);printf ("           (, /   )                    ");
   0398 21 00 0A      [10]  653 	ld	hl, #0x0a00
   039B E3            [19]  654 	ex	(sp),hl
   039C CDr00r00      [17]  655 	call	_locate
   039F 21rB1r05      [10]  656 	ld	hl, #___str_14
   03A2 E3            [19]  657 	ex	(sp),hl
   03A3 CDr00r00      [17]  658 	call	_printf
                            659 ;src/main.c:128: locate (0,11);printf ("             /__ / ___      _          ");
   03A6 21 00 0B      [10]  660 	ld	hl, #0x0b00
   03A9 E3            [19]  661 	ex	(sp),hl
   03AA CDr00r00      [17]  662 	call	_locate
   03AD 21rD9r05      [10]  663 	ld	hl, #___str_15
   03B0 E3            [19]  664 	ex	(sp),hl
   03B1 CDr00r00      [17]  665 	call	_printf
                            666 ;src/main.c:131: locate (0,12);printf ("          ) /   \\_(_(_/(_(_(/_         ");
   03B4 21 00 0C      [10]  667 	ld	hl, #0x0c00
   03B7 E3            [19]  668 	ex	(sp),hl
   03B8 CDr00r00      [17]  669 	call	_locate
   03BB 21r01r06      [10]  670 	ld	hl, #___str_16
   03BE E3            [19]  671 	ex	(sp),hl
   03BF CDr00r00      [17]  672 	call	_printf
                            673 ;src/main.c:132: locate (0,13);printf ("         (_/       .-/                 ");
   03C2 21 00 0D      [10]  674 	ld	hl, #0x0d00
   03C5 E3            [19]  675 	ex	(sp),hl
   03C6 CDr00r00      [17]  676 	call	_locate
   03C9 21r29r06      [10]  677 	ld	hl, #___str_17
   03CC E3            [19]  678 	ex	(sp),hl
   03CD CDr00r00      [17]  679 	call	_printf
                            680 ;src/main.c:133: locate (0,14);printf ("                  (_/                  ");
   03D0 21 00 0E      [10]  681 	ld	hl, #0x0e00
   03D3 E3            [19]  682 	ex	(sp),hl
   03D4 CDr00r00      [17]  683 	call	_locate
   03D7 21r51r06      [10]  684 	ld	hl, #___str_18
   03DA E3            [19]  685 	ex	(sp),hl
   03DB CDr00r00      [17]  686 	call	_printf
                            687 ;src/main.c:134: locate (10, 18); pen (2); printf ("PRESS ENTER TO START");
   03DE 21 0A 12      [10]  688 	ld	hl, #0x120a
   03E1 E3            [19]  689 	ex	(sp),hl
   03E2 CDr00r00      [17]  690 	call	_locate
   03E5 26 02         [ 7]  691 	ld	h,#0x02
   03E7 E3            [19]  692 	ex	(sp),hl
   03E8 33            [ 6]  693 	inc	sp
   03E9 CDr84r00      [17]  694 	call	_pen
   03EC 33            [ 6]  695 	inc	sp
   03ED 21r79r06      [10]  696 	ld	hl, #___str_19
   03F0 E5            [11]  697 	push	hl
   03F1 CDr00r00      [17]  698 	call	_printf
                            699 ;src/main.c:135: ink (0, 3,3); ink (1, 6,15); ink (2, 16,16); border (3,3);
   03F4 21 03 03      [10]  700 	ld	hl, #0x0303
   03F7 E3            [19]  701 	ex	(sp),hl
   03F8 AF            [ 4]  702 	xor	a, a
   03F9 F5            [11]  703 	push	af
   03FA 33            [ 6]  704 	inc	sp
   03FB CDr21r00      [17]  705 	call	_ink
   03FE 33            [ 6]  706 	inc	sp
   03FF 21 06 0F      [10]  707 	ld	hl,#0x0f06
   0402 E3            [19]  708 	ex	(sp),hl
   0403 3E 01         [ 7]  709 	ld	a, #0x01
   0405 F5            [11]  710 	push	af
   0406 33            [ 6]  711 	inc	sp
   0407 CDr21r00      [17]  712 	call	_ink
   040A 33            [ 6]  713 	inc	sp
   040B 21 10 10      [10]  714 	ld	hl,#0x1010
   040E E3            [19]  715 	ex	(sp),hl
   040F 3E 02         [ 7]  716 	ld	a, #0x02
   0411 F5            [11]  717 	push	af
   0412 33            [ 6]  718 	inc	sp
   0413 CDr21r00      [17]  719 	call	_ink
   0416 33            [ 6]  720 	inc	sp
   0417 21 03 03      [10]  721 	ld	hl,#0x0303
   041A E3            [19]  722 	ex	(sp),hl
   041B CDr4Er00      [17]  723 	call	_border
   041E F1            [10]  724 	pop	af
                            725 ;src/main.c:138: while (!cpct_isKeyPressed (Key_Return)) {
   041F                     726 00101$:
   041F 21 02 04      [10]  727 	ld	hl, #0x0402
   0422 CDr00r00      [17]  728 	call	_cpct_isKeyPressed
   0425 7D            [ 4]  729 	ld	a, l
   0426 B7            [ 4]  730 	or	a, a
   0427 20 05         [12]  731 	jr	NZ,00103$
                            732 ;src/main.c:139: cpct_scanKeyboard ();
   0429 CDr00r00      [17]  733 	call	_cpct_scanKeyboard
   042C 18 F1         [12]  734 	jr	00101$
   042E                     735 00103$:
                            736 ;src/main.c:143: border (0,0); ink (0, 0,0); ink (1, 25,25); ink (2, 20,20);
   042E 21 00 00      [10]  737 	ld	hl, #0x0000
   0431 E5            [11]  738 	push	hl
   0432 CDr4Er00      [17]  739 	call	_border
   0435 21 00 00      [10]  740 	ld	hl, #0x0000
   0438 E3            [19]  741 	ex	(sp),hl
   0439 AF            [ 4]  742 	xor	a, a
   043A F5            [11]  743 	push	af
   043B 33            [ 6]  744 	inc	sp
   043C CDr21r00      [17]  745 	call	_ink
   043F 33            [ 6]  746 	inc	sp
   0440 21 19 19      [10]  747 	ld	hl,#0x1919
   0443 E3            [19]  748 	ex	(sp),hl
   0444 3E 01         [ 7]  749 	ld	a, #0x01
   0446 F5            [11]  750 	push	af
   0447 33            [ 6]  751 	inc	sp
   0448 CDr21r00      [17]  752 	call	_ink
   044B 33            [ 6]  753 	inc	sp
   044C 21 14 14      [10]  754 	ld	hl,#0x1414
   044F E3            [19]  755 	ex	(sp),hl
   0450 3E 02         [ 7]  756 	ld	a, #0x02
   0452 F5            [11]  757 	push	af
   0453 33            [ 6]  758 	inc	sp
   0454 CDr21r00      [17]  759 	call	_ink
   0457 F1            [10]  760 	pop	af
   0458 33            [ 6]  761 	inc	sp
                            762 ;src/main.c:144: paper (0); pen (2); cls ();
   0459 AF            [ 4]  763 	xor	a, a
   045A F5            [11]  764 	push	af
   045B 33            [ 6]  765 	inc	sp
   045C CDr6Fr00      [17]  766 	call	_paper
   045F 33            [ 6]  767 	inc	sp
   0460 3E 02         [ 7]  768 	ld	a, #0x02
   0462 F5            [11]  769 	push	af
   0463 33            [ 6]  770 	inc	sp
   0464 CDr84r00      [17]  771 	call	_pen
   0467 33            [ 6]  772 	inc	sp
   0468 CDr99r00      [17]  773 	call	_cls
                            774 ;src/main.c:147: InitializeCharacter (&player, 150, 17, 14, 12, '@');
   046B 21 0A 00      [10]  775 	ld	hl, #0x000a
   046E 39            [11]  776 	add	hl, sp
   046F 4D            [ 4]  777 	ld	c, l
   0470 44            [ 4]  778 	ld	b, h
   0471 59            [ 4]  779 	ld	e, c
   0472 50            [ 4]  780 	ld	d, b
   0473 C5            [11]  781 	push	bc
   0474 21 0C 40      [10]  782 	ld	hl, #0x400c
   0477 E5            [11]  783 	push	hl
   0478 21 11 0E      [10]  784 	ld	hl, #0x0e11
   047B E5            [11]  785 	push	hl
   047C 21 96 00      [10]  786 	ld	hl, #0x0096
   047F E5            [11]  787 	push	hl
   0480 D5            [11]  788 	push	de
   0481 CDrA2r00      [17]  789 	call	_InitializeCharacter
   0484 21 08 00      [10]  790 	ld	hl, #8
   0487 39            [11]  791 	add	hl, sp
   0488 F9            [ 6]  792 	ld	sp, hl
   0489 C1            [10]  793 	pop	bc
                            794 ;src/main.c:148: InitializeCharacter (&goblin, 100, 12, 13, 11, 'g');
   048A 21 00 00      [10]  795 	ld	hl, #0x0000
   048D 39            [11]  796 	add	hl, sp
   048E E5            [11]  797 	push	hl
   048F FD E1         [14]  798 	pop	iy
   0491 E5            [11]  799 	push	hl
   0492 C5            [11]  800 	push	bc
   0493 11 0B 67      [10]  801 	ld	de, #0x670b
   0496 D5            [11]  802 	push	de
   0497 11 0C 0D      [10]  803 	ld	de, #0x0d0c
   049A D5            [11]  804 	push	de
   049B 11 64 00      [10]  805 	ld	de, #0x0064
   049E D5            [11]  806 	push	de
   049F FD E5         [15]  807 	push	iy
   04A1 CDrA2r00      [17]  808 	call	_InitializeCharacter
   04A4 21 08 00      [10]  809 	ld	hl, #8
   04A7 39            [11]  810 	add	hl, sp
   04A8 F9            [ 6]  811 	ld	sp, hl
   04A9 C1            [10]  812 	pop	bc
   04AA 11 01 02      [10]  813 	ld	de, #0x0201
   04AD D5            [11]  814 	push	de
   04AE C5            [11]  815 	push	bc
   04AF CDrB3r01      [17]  816 	call	_PrintCharacterStats
   04B2 F1            [10]  817 	pop	af
   04B3 F1            [10]  818 	pop	af
   04B4 E1            [10]  819 	pop	hl
                            820 ;src/main.c:152: PrintCharacterStats (&goblin, 1,2);
   04B5 01 01 02      [10]  821 	ld	bc, #0x0201
   04B8 C5            [11]  822 	push	bc
   04B9 E5            [11]  823 	push	hl
   04BA CDrB3r01      [17]  824 	call	_PrintCharacterStats
   04BD F1            [10]  825 	pop	af
   04BE F1            [10]  826 	pop	af
                            827 ;src/main.c:155: while (1);
   04BF                     828 00105$:
   04BF 18 FE         [12]  829 	jr	00105$
   04C1                     830 ___str_8:
   04C1 20 20 20 20 20 20   831 	.ascii "      )   ___    _____    )   ___      "
        29 20 20 20 5F 5F
        5F 20 20 20 20 5F
        5F 5F 5F 5F 20 20
        20 20 29 20 20 20
        5F 5F 5F 20 20 20
        20 20 20
   04E8 00                  832 	.db 0x00
   04E9                     833 ___str_9:
   04E9 20 20 20 20 20 28   834 	.ascii "     (__/_____) (, /   ) (__/_____)    "
        5F 5F 2F 5F 5F 5F
        5F 5F 29 20 28 2C
        20 2F 20 20 20 29
        20 28 5F 5F 2F 5F
        5F 5F 5F 5F 29 20
        20 20 20
   0510 00                  835 	.db 0x00
   0511                     836 ___str_10:
   0511 20 20 20 20 20 20   837 	.ascii "       /         _/__ /    /           "
        20 2F 20 20 20 20
        20 20 20 20 20 5F
        2F 5F 5F 20 2F 20
        20 20 20 2F 20 20
        20 20 20 20 20 20
        20 20 20
   0538 00                  838 	.db 0x00
   0539                     839 ___str_11:
   0539 20 20 20 20 20 20   840 	.ascii "      /          /        /            "
        2F 20 20 20 20 20
        20 20 20 20 20 2F
        20 20 20 20 20 20
        20 20 2F 20 20 20
        20 20 20 20 20 20
        20 20 20
   0560 00                  841 	.db 0x00
   0561                     842 ___str_12:
   0561 20 20 20 20 20 28   843 	.ascii "     (______) ) /        (______)      "
        5F 5F 5F 5F 5F 5F
        29 20 29 20 2F 20
        20 20 20 20 20 20
        20 28 5F 5F 5F 5F
        5F 5F 29 20 20 20
        20 20 20
   0588 00                  844 	.db 0x00
   0589                     845 ___str_13:
   0589 20 20 20 20 20 20   846 	.ascii "            _(_/_                      "
        20 20 20 20 20 20
        5F 28 5F 2F 5F 20
        20 20 20 20 20 20
        20 20 20 20 20 20
        20 20 20 20 20 20
        20 20 20
   05B0 00                  847 	.db 0x00
   05B1                     848 ___str_14:
   05B1 20 20 20 20 20 20   849 	.ascii "           (, /   )                    "
        20 20 20 20 20 28
        2C 20 2F 20 20 20
        29 20 20 20 20 20
        20 20 20 20 20 20
        20 20 20 20 20 20
        20 20 20
   05D8 00                  850 	.db 0x00
   05D9                     851 ___str_15:
   05D9 20 20 20 20 20 20   852 	.ascii "             /__ / ___      _          "
        20 20 20 20 20 20
        20 2F 5F 5F 20 2F
        20 5F 5F 5F 20 20
        20 20 20 20 5F 20
        20 20 20 20 20 20
        20 20 20
   0600 00                  853 	.db 0x00
   0601                     854 ___str_16:
   0601 20 20 20 20 20 20   855 	.ascii "          ) /   "
        20 20 20 20 29 20
        2F 20 20 20
   0611 5C                  856 	.db 0x5c
   0612 5F 28 5F 28 5F 2F   857 	.ascii "_(_(_/(_(_(/_         "
        28 5F 28 5F 28 2F
        5F 20 20 20 20 20
        20 20 20 20
   0628 00                  858 	.db 0x00
   0629                     859 ___str_17:
   0629 20 20 20 20 20 20   860 	.ascii "         (_/       .-/                 "
        20 20 20 28 5F 2F
        20 20 20 20 20 20
        20 2E 2D 2F 20 20
        20 20 20 20 20 20
        20 20 20 20 20 20
        20 20 20
   0650 00                  861 	.db 0x00
   0651                     862 ___str_18:
   0651 20 20 20 20 20 20   863 	.ascii "                  (_/                  "
        20 20 20 20 20 20
        20 20 20 20 20 20
        28 5F 2F 20 20 20
        20 20 20 20 20 20
        20 20 20 20 20 20
        20 20 20
   0678 00                  864 	.db 0x00
   0679                     865 ___str_19:
   0679 50 52 45 53 53 20   866 	.ascii "PRESS ENTER TO START"
        45 4E 54 45 52 20
        54 4F 20 53 54 41
        52 54
   068D 00                  867 	.db 0x00
                            868 	.area _CODE
                            869 	.area _INITIALIZER
                            870 	.area _CABS (ABS)
