                              1 ;--------------------------------------------------------
                              2 ; File Created by SDCC : free open source ANSI-C Compiler
                              3 ; Version 3.6.8 #9946 (Linux)
                              4 ;--------------------------------------------------------
                              5 	.module main
                              6 	.optsdcc -mz80
                              7 	
                              8 ;--------------------------------------------------------
                              9 ; Public variables in this module
                             10 ;--------------------------------------------------------
                             11 	.globl _main
                             12 	.globl _pen
                             13 	.globl _paper
                             14 	.globl _border
                             15 	.globl _ink
                             16 	.globl _locate
                             17 	.globl _putchar
                             18 	.globl _printf
                             19 	.globl _cpct_setVideoMode
                             20 ;--------------------------------------------------------
                             21 ; special function registers
                             22 ;--------------------------------------------------------
                             23 ;--------------------------------------------------------
                             24 ; ram data
                             25 ;--------------------------------------------------------
                             26 	.area _DATA
                             27 ;--------------------------------------------------------
                             28 ; ram data
                             29 ;--------------------------------------------------------
                             30 	.area _INITIALIZED
                             31 ;--------------------------------------------------------
                             32 ; absolute external ram data
                             33 ;--------------------------------------------------------
                             34 	.area _DABS (ABS)
                             35 ;--------------------------------------------------------
                             36 ; global & static initialisations
                             37 ;--------------------------------------------------------
                             38 	.area _HOME
                             39 	.area _GSINIT
                             40 	.area _GSFINAL
                             41 	.area _GSINIT
                             42 ;--------------------------------------------------------
                             43 ; Home
                             44 ;--------------------------------------------------------
                             45 	.area _HOME
                             46 	.area _HOME
                             47 ;--------------------------------------------------------
                             48 ; code
                             49 ;--------------------------------------------------------
                             50 	.area _CODE
                             51 ;src/main.c:33: void locate (u8 x, u8 y)
                             52 ;	---------------------------------
                             53 ; Function locate
                             54 ; ---------------------------------
   0000                      55 _locate::
                             56 ;src/main.c:35: putchar(US);
   0000 21 1F 00      [10]   57 	ld	hl, #0x001f
   0003 E5            [11]   58 	push	hl
   0004 CDr00r00      [17]   59 	call	_putchar
   0007 F1            [10]   60 	pop	af
                             61 ;src/main.c:36: putchar (x); putchar (y);
   0008 21 02 00      [10]   62 	ld	hl, #2+0
   000B 39            [11]   63 	add	hl, sp
   000C 4E            [ 7]   64 	ld	c, (hl)
   000D 06 00         [ 7]   65 	ld	b, #0x00
   000F C5            [11]   66 	push	bc
   0010 CDr00r00      [17]   67 	call	_putchar
   0013 F1            [10]   68 	pop	af
   0014 21 03 00      [10]   69 	ld	hl, #3+0
   0017 39            [11]   70 	add	hl, sp
   0018 4E            [ 7]   71 	ld	c, (hl)
   0019 06 00         [ 7]   72 	ld	b, #0x00
   001B C5            [11]   73 	push	bc
   001C CDr00r00      [17]   74 	call	_putchar
   001F F1            [10]   75 	pop	af
   0020 C9            [10]   76 	ret
                             77 ;src/main.c:38: void ink (u8 tinta, u8 color1, u8 color2)
                             78 ;	---------------------------------
                             79 ; Function ink
                             80 ; ---------------------------------
   0021                      81 _ink::
                             82 ;src/main.c:40: putchar (FS);
   0021 21 1C 00      [10]   83 	ld	hl, #0x001c
   0024 E5            [11]   84 	push	hl
   0025 CDr00r00      [17]   85 	call	_putchar
   0028 F1            [10]   86 	pop	af
                             87 ;src/main.c:41: putchar (tinta); putchar (color1); putchar (color2);
   0029 21 02 00      [10]   88 	ld	hl, #2+0
   002C 39            [11]   89 	add	hl, sp
   002D 4E            [ 7]   90 	ld	c, (hl)
   002E 06 00         [ 7]   91 	ld	b, #0x00
   0030 C5            [11]   92 	push	bc
   0031 CDr00r00      [17]   93 	call	_putchar
   0034 F1            [10]   94 	pop	af
   0035 21 03 00      [10]   95 	ld	hl, #3+0
   0038 39            [11]   96 	add	hl, sp
   0039 4E            [ 7]   97 	ld	c, (hl)
   003A 06 00         [ 7]   98 	ld	b, #0x00
   003C C5            [11]   99 	push	bc
   003D CDr00r00      [17]  100 	call	_putchar
   0040 F1            [10]  101 	pop	af
   0041 21 04 00      [10]  102 	ld	hl, #4+0
   0044 39            [11]  103 	add	hl, sp
   0045 4E            [ 7]  104 	ld	c, (hl)
   0046 06 00         [ 7]  105 	ld	b, #0x00
   0048 C5            [11]  106 	push	bc
   0049 CDr00r00      [17]  107 	call	_putchar
   004C F1            [10]  108 	pop	af
   004D C9            [10]  109 	ret
                            110 ;src/main.c:43: void border (u8 color1, u8 color2)
                            111 ;	---------------------------------
                            112 ; Function border
                            113 ; ---------------------------------
   004E                     114 _border::
                            115 ;src/main.c:45: putchar (GS);
   004E 21 1D 00      [10]  116 	ld	hl, #0x001d
   0051 E5            [11]  117 	push	hl
   0052 CDr00r00      [17]  118 	call	_putchar
   0055 F1            [10]  119 	pop	af
                            120 ;src/main.c:46: putchar (color1); putchar (color2);
   0056 21 02 00      [10]  121 	ld	hl, #2+0
   0059 39            [11]  122 	add	hl, sp
   005A 4E            [ 7]  123 	ld	c, (hl)
   005B 06 00         [ 7]  124 	ld	b, #0x00
   005D C5            [11]  125 	push	bc
   005E CDr00r00      [17]  126 	call	_putchar
   0061 F1            [10]  127 	pop	af
   0062 21 03 00      [10]  128 	ld	hl, #3+0
   0065 39            [11]  129 	add	hl, sp
   0066 4E            [ 7]  130 	ld	c, (hl)
   0067 06 00         [ 7]  131 	ld	b, #0x00
   0069 C5            [11]  132 	push	bc
   006A CDr00r00      [17]  133 	call	_putchar
   006D F1            [10]  134 	pop	af
   006E C9            [10]  135 	ret
                            136 ;src/main.c:49: void paper (u8 color1)
                            137 ;	---------------------------------
                            138 ; Function paper
                            139 ; ---------------------------------
   006F                     140 _paper::
                            141 ;src/main.c:51: putchar (SO);
   006F 21 0E 00      [10]  142 	ld	hl, #0x000e
   0072 E5            [11]  143 	push	hl
   0073 CDr00r00      [17]  144 	call	_putchar
   0076 F1            [10]  145 	pop	af
                            146 ;src/main.c:52: putchar (color1);
   0077 21 02 00      [10]  147 	ld	hl, #2+0
   007A 39            [11]  148 	add	hl, sp
   007B 4E            [ 7]  149 	ld	c, (hl)
   007C 06 00         [ 7]  150 	ld	b, #0x00
   007E C5            [11]  151 	push	bc
   007F CDr00r00      [17]  152 	call	_putchar
   0082 F1            [10]  153 	pop	af
   0083 C9            [10]  154 	ret
                            155 ;src/main.c:54: void pen (u8 tinta)
                            156 ;	---------------------------------
                            157 ; Function pen
                            158 ; ---------------------------------
   0084                     159 _pen::
                            160 ;src/main.c:56: putchar (SI);
   0084 21 0F 00      [10]  161 	ld	hl, #0x000f
   0087 E5            [11]  162 	push	hl
   0088 CDr00r00      [17]  163 	call	_putchar
   008B F1            [10]  164 	pop	af
                            165 ;src/main.c:57: putchar (tinta);
   008C 21 02 00      [10]  166 	ld	hl, #2+0
   008F 39            [11]  167 	add	hl, sp
   0090 4E            [ 7]  168 	ld	c, (hl)
   0091 06 00         [ 7]  169 	ld	b, #0x00
   0093 C5            [11]  170 	push	bc
   0094 CDr00r00      [17]  171 	call	_putchar
   0097 F1            [10]  172 	pop	af
   0098 C9            [10]  173 	ret
                            174 ;src/main.c:60: void main(void) {
                            175 ;	---------------------------------
                            176 ; Function main
                            177 ; ---------------------------------
   0099                     178 _main::
                            179 ;src/main.c:61: ink (0,0,0); ink (1,0,0); ink (2,0,0);    // Black used palette colors
   0099 21 00 00      [10]  180 	ld	hl, #0x0000
   009C E5            [11]  181 	push	hl
   009D AF            [ 4]  182 	xor	a, a
   009E F5            [11]  183 	push	af
   009F 33            [ 6]  184 	inc	sp
   00A0 CDr21r00      [17]  185 	call	_ink
   00A3 33            [ 6]  186 	inc	sp
   00A4 21 00 00      [10]  187 	ld	hl,#0x0000
   00A7 E3            [19]  188 	ex	(sp),hl
   00A8 3E 01         [ 7]  189 	ld	a, #0x01
   00AA F5            [11]  190 	push	af
   00AB 33            [ 6]  191 	inc	sp
   00AC CDr21r00      [17]  192 	call	_ink
   00AF 33            [ 6]  193 	inc	sp
   00B0 21 00 00      [10]  194 	ld	hl,#0x0000
   00B3 E3            [19]  195 	ex	(sp),hl
   00B4 3E 02         [ 7]  196 	ld	a, #0x02
   00B6 F5            [11]  197 	push	af
   00B7 33            [ 6]  198 	inc	sp
   00B8 CDr21r00      [17]  199 	call	_ink
   00BB F1            [10]  200 	pop	af
   00BC 33            [ 6]  201 	inc	sp
                            202 ;src/main.c:62: cpct_setVideoMode (1);                    // Set Vide Mode 1 (40x25)
   00BD 2E 01         [ 7]  203 	ld	l, #0x01
   00BF CDr00r00      [17]  204 	call	_cpct_setVideoMode
                            205 ;src/main.c:63: border (0,0); paper (0); pen (1);
   00C2 21 00 00      [10]  206 	ld	hl, #0x0000
   00C5 E5            [11]  207 	push	hl
   00C6 CDr4Er00      [17]  208 	call	_border
   00C9 F1            [10]  209 	pop	af
   00CA AF            [ 4]  210 	xor	a, a
   00CB F5            [11]  211 	push	af
   00CC 33            [ 6]  212 	inc	sp
   00CD CDr6Fr00      [17]  213 	call	_paper
   00D0 33            [ 6]  214 	inc	sp
   00D1 3E 01         [ 7]  215 	ld	a, #0x01
   00D3 F5            [11]  216 	push	af
   00D4 33            [ 6]  217 	inc	sp
   00D5 CDr84r00      [17]  218 	call	_pen
   00D8 33            [ 6]  219 	inc	sp
                            220 ;src/main.c:65: locate (0,4);printf ("      )   ___    _____    )   ___      \n");
   00D9 21 00 04      [10]  221 	ld	hl, #0x0400
   00DC E5            [11]  222 	push	hl
   00DD CDr00r00      [17]  223 	call	_locate
   00E0 21rB6r01      [10]  224 	ld	hl, #___str_0
   00E3 E3            [19]  225 	ex	(sp),hl
   00E4 CDr00r00      [17]  226 	call	_printf
                            227 ;src/main.c:66: locate (0,5);printf ("     (__/_____) (, /   ) (__/_____)    \n");
   00E7 21 00 05      [10]  228 	ld	hl, #0x0500
   00EA E3            [19]  229 	ex	(sp),hl
   00EB CDr00r00      [17]  230 	call	_locate
   00EE 21rDFr01      [10]  231 	ld	hl, #___str_1
   00F1 E3            [19]  232 	ex	(sp),hl
   00F2 CDr00r00      [17]  233 	call	_printf
                            234 ;src/main.c:67: locate (0,6);printf ("       /         _/__ /    /           \n");
   00F5 21 00 06      [10]  235 	ld	hl, #0x0600
   00F8 E3            [19]  236 	ex	(sp),hl
   00F9 CDr00r00      [17]  237 	call	_locate
   00FC 21r08r02      [10]  238 	ld	hl, #___str_2
   00FF E3            [19]  239 	ex	(sp),hl
   0100 CDr00r00      [17]  240 	call	_printf
                            241 ;src/main.c:68: locate (0,7);printf ("      /          /        /            \n");
   0103 21 00 07      [10]  242 	ld	hl, #0x0700
   0106 E3            [19]  243 	ex	(sp),hl
   0107 CDr00r00      [17]  244 	call	_locate
   010A 21r31r02      [10]  245 	ld	hl, #___str_3
   010D E3            [19]  246 	ex	(sp),hl
   010E CDr00r00      [17]  247 	call	_printf
                            248 ;src/main.c:69: locate (0,8);printf ("     (______) ) /        (______)      \n");
   0111 21 00 08      [10]  249 	ld	hl, #0x0800
   0114 E3            [19]  250 	ex	(sp),hl
   0115 CDr00r00      [17]  251 	call	_locate
   0118 21r5Ar02      [10]  252 	ld	hl, #___str_4
   011B E3            [19]  253 	ex	(sp),hl
   011C CDr00r00      [17]  254 	call	_printf
                            255 ;src/main.c:70: locate (0,9);printf ("            _(_/_                      \n");
   011F 21 00 09      [10]  256 	ld	hl, #0x0900
   0122 E3            [19]  257 	ex	(sp),hl
   0123 CDr00r00      [17]  258 	call	_locate
   0126 21r83r02      [10]  259 	ld	hl, #___str_5
   0129 E3            [19]  260 	ex	(sp),hl
   012A CDr00r00      [17]  261 	call	_printf
                            262 ;src/main.c:71: locate (0,10);printf ("           (, /   )                    \n");
   012D 21 00 0A      [10]  263 	ld	hl, #0x0a00
   0130 E3            [19]  264 	ex	(sp),hl
   0131 CDr00r00      [17]  265 	call	_locate
   0134 21rACr02      [10]  266 	ld	hl, #___str_6
   0137 E3            [19]  267 	ex	(sp),hl
   0138 CDr00r00      [17]  268 	call	_printf
                            269 ;src/main.c:72: locate (0,11);printf ("             /__ / ___      _          \n");
   013B 21 00 0B      [10]  270 	ld	hl, #0x0b00
   013E E3            [19]  271 	ex	(sp),hl
   013F CDr00r00      [17]  272 	call	_locate
   0142 21rD5r02      [10]  273 	ld	hl, #___str_7
   0145 E3            [19]  274 	ex	(sp),hl
   0146 CDr00r00      [17]  275 	call	_printf
                            276 ;src/main.c:75: locate (0,12);printf ("          ) /   \\_(_(_/(_(_(/_         \n");
   0149 21 00 0C      [10]  277 	ld	hl, #0x0c00
   014C E3            [19]  278 	ex	(sp),hl
   014D CDr00r00      [17]  279 	call	_locate
   0150 21rFEr02      [10]  280 	ld	hl, #___str_8
   0153 E3            [19]  281 	ex	(sp),hl
   0154 CDr00r00      [17]  282 	call	_printf
                            283 ;src/main.c:76: locate (0,13);printf ("         (_/       .-/                 \n");
   0157 21 00 0D      [10]  284 	ld	hl, #0x0d00
   015A E3            [19]  285 	ex	(sp),hl
   015B CDr00r00      [17]  286 	call	_locate
   015E 21r27r03      [10]  287 	ld	hl, #___str_9
   0161 E3            [19]  288 	ex	(sp),hl
   0162 CDr00r00      [17]  289 	call	_printf
                            290 ;src/main.c:77: locate (0,14);printf ("                  (_/                  \n");
   0165 21 00 0E      [10]  291 	ld	hl, #0x0e00
   0168 E3            [19]  292 	ex	(sp),hl
   0169 CDr00r00      [17]  293 	call	_locate
   016C 21r50r03      [10]  294 	ld	hl, #___str_10
   016F E3            [19]  295 	ex	(sp),hl
   0170 CDr00r00      [17]  296 	call	_printf
                            297 ;src/main.c:78: locate (10, 18); pen (2); printf ("PRESS ENTER TO START");
   0173 21 0A 12      [10]  298 	ld	hl, #0x120a
   0176 E3            [19]  299 	ex	(sp),hl
   0177 CDr00r00      [17]  300 	call	_locate
   017A 26 02         [ 7]  301 	ld	h,#0x02
   017C E3            [19]  302 	ex	(sp),hl
   017D 33            [ 6]  303 	inc	sp
   017E CDr84r00      [17]  304 	call	_pen
   0181 33            [ 6]  305 	inc	sp
   0182 21r79r03      [10]  306 	ld	hl, #___str_11
   0185 E5            [11]  307 	push	hl
   0186 CDr00r00      [17]  308 	call	_printf
                            309 ;src/main.c:79: ink (0, 3,3); ink (1, 6,15); ink (2, 16,16); border (3,3);
   0189 21 03 03      [10]  310 	ld	hl, #0x0303
   018C E3            [19]  311 	ex	(sp),hl
   018D AF            [ 4]  312 	xor	a, a
   018E F5            [11]  313 	push	af
   018F 33            [ 6]  314 	inc	sp
   0190 CDr21r00      [17]  315 	call	_ink
   0193 33            [ 6]  316 	inc	sp
   0194 21 06 0F      [10]  317 	ld	hl,#0x0f06
   0197 E3            [19]  318 	ex	(sp),hl
   0198 3E 01         [ 7]  319 	ld	a, #0x01
   019A F5            [11]  320 	push	af
   019B 33            [ 6]  321 	inc	sp
   019C CDr21r00      [17]  322 	call	_ink
   019F 33            [ 6]  323 	inc	sp
   01A0 21 10 10      [10]  324 	ld	hl,#0x1010
   01A3 E3            [19]  325 	ex	(sp),hl
   01A4 3E 02         [ 7]  326 	ld	a, #0x02
   01A6 F5            [11]  327 	push	af
   01A7 33            [ 6]  328 	inc	sp
   01A8 CDr21r00      [17]  329 	call	_ink
   01AB 33            [ 6]  330 	inc	sp
   01AC 21 03 03      [10]  331 	ld	hl,#0x0303
   01AF E3            [19]  332 	ex	(sp),hl
   01B0 CDr4Er00      [17]  333 	call	_border
   01B3 F1            [10]  334 	pop	af
                            335 ;src/main.c:82: while (1);
   01B4                     336 00102$:
   01B4 18 FE         [12]  337 	jr	00102$
   01B6                     338 ___str_0:
   01B6 20 20 20 20 20 20   339 	.ascii "      )   ___    _____    )   ___      "
        29 20 20 20 5F 5F
        5F 20 20 20 20 5F
        5F 5F 5F 5F 20 20
        20 20 29 20 20 20
        5F 5F 5F 20 20 20
        20 20 20
   01DD 0A                  340 	.db 0x0a
   01DE 00                  341 	.db 0x00
   01DF                     342 ___str_1:
   01DF 20 20 20 20 20 28   343 	.ascii "     (__/_____) (, /   ) (__/_____)    "
        5F 5F 2F 5F 5F 5F
        5F 5F 29 20 28 2C
        20 2F 20 20 20 29
        20 28 5F 5F 2F 5F
        5F 5F 5F 5F 29 20
        20 20 20
   0206 0A                  344 	.db 0x0a
   0207 00                  345 	.db 0x00
   0208                     346 ___str_2:
   0208 20 20 20 20 20 20   347 	.ascii "       /         _/__ /    /           "
        20 2F 20 20 20 20
        20 20 20 20 20 5F
        2F 5F 5F 20 2F 20
        20 20 20 2F 20 20
        20 20 20 20 20 20
        20 20 20
   022F 0A                  348 	.db 0x0a
   0230 00                  349 	.db 0x00
   0231                     350 ___str_3:
   0231 20 20 20 20 20 20   351 	.ascii "      /          /        /            "
        2F 20 20 20 20 20
        20 20 20 20 20 2F
        20 20 20 20 20 20
        20 20 2F 20 20 20
        20 20 20 20 20 20
        20 20 20
   0258 0A                  352 	.db 0x0a
   0259 00                  353 	.db 0x00
   025A                     354 ___str_4:
   025A 20 20 20 20 20 28   355 	.ascii "     (______) ) /        (______)      "
        5F 5F 5F 5F 5F 5F
        29 20 29 20 2F 20
        20 20 20 20 20 20
        20 28 5F 5F 5F 5F
        5F 5F 29 20 20 20
        20 20 20
   0281 0A                  356 	.db 0x0a
   0282 00                  357 	.db 0x00
   0283                     358 ___str_5:
   0283 20 20 20 20 20 20   359 	.ascii "            _(_/_                      "
        20 20 20 20 20 20
        5F 28 5F 2F 5F 20
        20 20 20 20 20 20
        20 20 20 20 20 20
        20 20 20 20 20 20
        20 20 20
   02AA 0A                  360 	.db 0x0a
   02AB 00                  361 	.db 0x00
   02AC                     362 ___str_6:
   02AC 20 20 20 20 20 20   363 	.ascii "           (, /   )                    "
        20 20 20 20 20 28
        2C 20 2F 20 20 20
        29 20 20 20 20 20
        20 20 20 20 20 20
        20 20 20 20 20 20
        20 20 20
   02D3 0A                  364 	.db 0x0a
   02D4 00                  365 	.db 0x00
   02D5                     366 ___str_7:
   02D5 20 20 20 20 20 20   367 	.ascii "             /__ / ___      _          "
        20 20 20 20 20 20
        20 2F 5F 5F 20 2F
        20 5F 5F 5F 20 20
        20 20 20 20 5F 20
        20 20 20 20 20 20
        20 20 20
   02FC 0A                  368 	.db 0x0a
   02FD 00                  369 	.db 0x00
   02FE                     370 ___str_8:
   02FE 20 20 20 20 20 20   371 	.ascii "          ) /   "
        20 20 20 20 29 20
        2F 20 20 20
   030E 5C                  372 	.db 0x5c
   030F 5F 28 5F 28 5F 2F   373 	.ascii "_(_(_/(_(_(/_         "
        28 5F 28 5F 28 2F
        5F 20 20 20 20 20
        20 20 20 20
   0325 0A                  374 	.db 0x0a
   0326 00                  375 	.db 0x00
   0327                     376 ___str_9:
   0327 20 20 20 20 20 20   377 	.ascii "         (_/       .-/                 "
        20 20 20 28 5F 2F
        20 20 20 20 20 20
        20 2E 2D 2F 20 20
        20 20 20 20 20 20
        20 20 20 20 20 20
        20 20 20
   034E 0A                  378 	.db 0x0a
   034F 00                  379 	.db 0x00
   0350                     380 ___str_10:
   0350 20 20 20 20 20 20   381 	.ascii "                  (_/                  "
        20 20 20 20 20 20
        20 20 20 20 20 20
        28 5F 2F 20 20 20
        20 20 20 20 20 20
        20 20 20 20 20 20
        20 20 20
   0377 0A                  382 	.db 0x0a
   0378 00                  383 	.db 0x00
   0379                     384 ___str_11:
   0379 50 52 45 53 53 20   385 	.ascii "PRESS ENTER TO START"
        45 4E 54 45 52 20
        54 4F 20 53 54 41
        52 54
   038D 00                  386 	.db 0x00
                            387 	.area _CODE
                            388 	.area _INITIALIZER
                            389 	.area _CABS (ABS)
